
Discarded input sections

 .comment       0x0000000000000000       0x13 ./build/Video/VideoControllerImpl.o
 .group         0x0000000000000000        0x8 ./build/Video/TextModePresenterImpl.o
 .group         0x0000000000000000        0xc ./build/Video/TextModePresenterImpl.o
 .comment       0x0000000000000000       0x13 ./build/Video/TextModePresenterImpl.o
 .group         0x0000000000000000        0x8 ./build/Video/VideoPresenterImpl.o
 .group         0x0000000000000000        0x8 ./build/Video/VideoPresenterImpl.o
 .group         0x0000000000000000        0xc ./build/Video/VideoPresenterImpl.o
 .group         0x0000000000000000        0xc ./build/Video/VideoPresenterImpl.o
 .comment       0x0000000000000000       0x13 ./build/Video/VideoPresenterImpl.o
 .comment       0x0000000000000000       0x13 ./build/Video/FrameBufferPresenterImpl.o
 .group         0x0000000000000000        0xc ./build/System.o
 .comment       0x0000000000000000       0x13 ./build/System.o
 .comment       0x0000000000000000       0x13 ./build/Runtime.o
 .comment       0x0000000000000000       0x13 ./build/libkern/printf.o
 .comment       0x0000000000000000       0x13 ./build/libkern/sprintf.o
 .comment       0x0000000000000000       0x13 ./build/Device/ComputerDeviceImpl.o
 .group         0x0000000000000000        0x8 ./build/Device/DeviceImpl.o
 .group         0x0000000000000000        0xc ./build/Device/DeviceImpl.o
 .comment       0x0000000000000000       0x13 ./build/Device/DeviceImpl.o
 .group         0x0000000000000000        0x8 ./build/Device/DeviceStaticImpl.o
 .group         0x0000000000000000        0x8 ./build/Device/DeviceStaticImpl.o
 .group         0x0000000000000000        0xc ./build/Device/DeviceStaticImpl.o
 .group         0x0000000000000000        0x8 ./build/Device/DeviceStaticImpl.o
 .group         0x0000000000000000        0xc ./build/Device/DeviceStaticImpl.o
 .group         0x0000000000000000        0x8 ./build/Device/DeviceStaticImpl.o
 .group         0x0000000000000000        0xc ./build/Device/DeviceStaticImpl.o
 .group         0x0000000000000000        0x8 ./build/Device/DeviceStaticImpl.o
 .group         0x0000000000000000        0x8 ./build/Device/DeviceStaticImpl.o
 .group         0x0000000000000000        0x8 ./build/Device/DeviceStaticImpl.o
 .group         0x0000000000000000        0xc ./build/Device/DeviceStaticImpl.o
 .group         0x0000000000000000        0xc ./build/Device/DeviceStaticImpl.o
 .comment       0x0000000000000000       0x13 ./build/Device/DeviceStaticImpl.o
 .group         0x0000000000000000        0x8 ./build/Device/DeviceManagement.o
 .group         0x0000000000000000        0xc ./build/Device/DeviceManagement.o
 .group         0x0000000000000000        0x8 ./build/Device/DeviceManagement.o
 .group         0x0000000000000000        0xc ./build/Device/DeviceManagement.o
 .group         0x0000000000000000        0x8 ./build/Device/DeviceManagement.o
 .group         0x0000000000000000        0xc ./build/Device/DeviceManagement.o
 .comment       0x0000000000000000       0x13 ./build/Device/DeviceManagement.o
 .group         0x0000000000000000        0x8 ./build/Drivers/Storage/AHCI/AHCIControllerDeviceImpl.o
 .group         0x0000000000000000        0x8 ./build/Drivers/Storage/AHCI/AHCIControllerDeviceImpl.o
 .group         0x0000000000000000        0xc ./build/Drivers/Storage/AHCI/AHCIControllerDeviceImpl.o
 .group         0x0000000000000000        0xc ./build/Drivers/Storage/AHCI/AHCIControllerDeviceImpl.o
 .group         0x0000000000000000        0xc ./build/Drivers/Storage/AHCI/AHCIControllerDeviceImpl.o
 .group         0x0000000000000000        0xc ./build/Drivers/Storage/AHCI/AHCIControllerDeviceImpl.o
 .group         0x0000000000000000        0xc ./build/Drivers/Storage/AHCI/AHCIControllerDeviceImpl.o
 .group         0x0000000000000000        0x8 ./build/Drivers/Storage/AHCI/AHCIControllerDeviceImpl.o
 .group         0x0000000000000000        0x8 ./build/Drivers/Storage/AHCI/AHCIControllerDeviceImpl.o
 .group         0x0000000000000000        0xc ./build/Drivers/Storage/AHCI/AHCIControllerDeviceImpl.o
 .group         0x0000000000000000        0x8 ./build/Drivers/Storage/AHCI/AHCIControllerDeviceImpl.o
 .group         0x0000000000000000        0xc ./build/Drivers/Storage/AHCI/AHCIControllerDeviceImpl.o
 .group         0x0000000000000000        0xc ./build/Drivers/Storage/AHCI/AHCIControllerDeviceImpl.o
 .comment       0x0000000000000000       0x13 ./build/Drivers/Storage/AHCI/AHCIControllerDeviceImpl.o
 .group         0x0000000000000000        0x8 ./build/Drivers/Storage/AHCI/AHCIMain.o
 .group         0x0000000000000000        0x8 ./build/Drivers/Storage/AHCI/AHCIMain.o
 .comment       0x0000000000000000       0x13 ./build/Drivers/Storage/AHCI/AHCIMain.o
 .group         0x0000000000000000        0x8 ./build/Drivers/Storage/AHCI/SATADiskDeviceImpl.o
 .group         0x0000000000000000        0xc ./build/Drivers/Storage/AHCI/SATADiskDeviceImpl.o
 .group         0x0000000000000000        0xc ./build/Drivers/Storage/AHCI/SATADiskDeviceImpl.o
 .group         0x0000000000000000        0xc ./build/Drivers/Storage/AHCI/SATADiskDeviceImpl.o
 .group         0x0000000000000000        0xc ./build/Drivers/Storage/AHCI/SATADiskDeviceImpl.o
 .group         0x0000000000000000        0x8 ./build/Drivers/Storage/AHCI/SATADiskDeviceImpl.o
 .group         0x0000000000000000        0xc ./build/Drivers/Storage/AHCI/SATADiskDeviceImpl.o
 .group         0x0000000000000000        0xc ./build/Drivers/Storage/AHCI/SATADiskDeviceImpl.o
 .group         0x0000000000000000        0xc ./build/Drivers/Storage/AHCI/SATADiskDeviceImpl.o
 .comment       0x0000000000000000       0x13 ./build/Drivers/Storage/AHCI/SATADiskDeviceImpl.o
 .group         0x0000000000000000        0x8 ./build/Drivers/Bus/PCI/PCIDeviceProviderImpl.o
 .group         0x0000000000000000        0x8 ./build/Drivers/Bus/PCI/PCIDeviceProviderImpl.o
 .group         0x0000000000000000        0xc ./build/Drivers/Bus/PCI/PCIDeviceProviderImpl.o
 .group         0x0000000000000000        0xc ./build/Drivers/Bus/PCI/PCIDeviceProviderImpl.o
 .group         0x0000000000000000        0xc ./build/Drivers/Bus/PCI/PCIDeviceProviderImpl.o
 .group         0x0000000000000000        0x8 ./build/Drivers/Bus/PCI/PCIDeviceProviderImpl.o
 .group         0x0000000000000000        0xc ./build/Drivers/Bus/PCI/PCIDeviceProviderImpl.o
 .group         0x0000000000000000        0x8 ./build/Drivers/Bus/PCI/PCIDeviceProviderImpl.o
 .group         0x0000000000000000        0xc ./build/Drivers/Bus/PCI/PCIDeviceProviderImpl.o
 .group         0x0000000000000000        0x8 ./build/Drivers/Bus/PCI/PCIDeviceProviderImpl.o
 .group         0x0000000000000000        0x8 ./build/Drivers/Bus/PCI/PCIDeviceProviderImpl.o
 .group         0x0000000000000000        0xc ./build/Drivers/Bus/PCI/PCIDeviceProviderImpl.o
 .group         0x0000000000000000        0xc ./build/Drivers/Bus/PCI/PCIDeviceProviderImpl.o
 .group         0x0000000000000000        0x8 ./build/Drivers/Bus/PCI/PCIDeviceProviderImpl.o
 .group         0x0000000000000000        0xc ./build/Drivers/Bus/PCI/PCIDeviceProviderImpl.o
 .group         0x0000000000000000        0x8 ./build/Drivers/Bus/PCI/PCIDeviceProviderImpl.o
 .group         0x0000000000000000        0xc ./build/Drivers/Bus/PCI/PCIDeviceProviderImpl.o
 .group         0x0000000000000000        0x8 ./build/Drivers/Bus/PCI/PCIDeviceProviderImpl.o
 .group         0x0000000000000000        0xc ./build/Drivers/Bus/PCI/PCIDeviceProviderImpl.o
 .group         0x0000000000000000        0x8 ./build/Drivers/Bus/PCI/PCIDeviceProviderImpl.o
 .group         0x0000000000000000        0xc ./build/Drivers/Bus/PCI/PCIDeviceProviderImpl.o
 .group         0x0000000000000000        0xc ./build/Drivers/Bus/PCI/PCIDeviceProviderImpl.o
 .comment       0x0000000000000000       0x13 ./build/Drivers/Bus/PCI/PCIDeviceProviderImpl.o
 .comment       0x0000000000000000       0x13 ./build/Drivers/Bus/PCI/PCIMain.o
 .group         0x0000000000000000        0x8 ./build/Drivers/Bus/PCI/PCIDeviceImpl.o
 .group         0x0000000000000000        0xc ./build/Drivers/Bus/PCI/PCIDeviceImpl.o
 .group         0x0000000000000000        0xc ./build/Drivers/Bus/PCI/PCIDeviceImpl.o
 .group         0x0000000000000000        0xc ./build/Drivers/Bus/PCI/PCIDeviceImpl.o
 .group         0x0000000000000000        0xc ./build/Drivers/Bus/PCI/PCIDeviceImpl.o
 .group         0x0000000000000000        0xc ./build/Drivers/Bus/PCI/PCIDeviceImpl.o
 .group         0x0000000000000000        0xc ./build/Drivers/Bus/PCI/PCIDeviceImpl.o
 .comment       0x0000000000000000       0x13 ./build/Drivers/Bus/PCI/PCIDeviceImpl.o
 .comment       0x0000000000000000       0x13 ./build/Drivers/Video.o
 .group         0x0000000000000000        0x8 ./build/Drivers/Generic/APIC/IO.o
 .group         0x0000000000000000        0x8 ./build/Drivers/Generic/APIC/IO.o
 .comment       0x0000000000000000       0x13 ./build/Drivers/Generic/APIC/IO.o
 .group         0x0000000000000000        0xc ./build/Drivers/Generic/APIC/APICTimer.o
 .group         0x0000000000000000        0xc ./build/Drivers/Generic/APIC/APICTimer.o
 .group         0x0000000000000000        0xc ./build/Drivers/Generic/APIC/APICTimer.o
 .comment       0x0000000000000000       0x13 ./build/Drivers/Generic/APIC/APICTimer.o
 .comment       0x0000000000000000       0x13 ./build/Drivers/Generic/APIC/Local.o
 .group         0x0000000000000000        0x8 ./build/Drivers/Generic/APIC/APICMain.o
 .group         0x0000000000000000        0x8 ./build/Drivers/Generic/APIC/APICMain.o
 .comment       0x0000000000000000       0x13 ./build/Drivers/Generic/APIC/APICMain.o
 .comment       0x0000000000000000       0x13 ./build/Drivers/Generic/ACPI/MADTMain.o
 .group         0x0000000000000000        0x8 ./build/Drivers/Generic/ACPI/ACPIMain.o
 .group         0x0000000000000000        0xc ./build/Drivers/Generic/ACPI/ACPIMain.o
 .group         0x0000000000000000        0x8 ./build/Drivers/Generic/ACPI/ACPIMain.o
 .group         0x0000000000000000        0x8 ./build/Drivers/Generic/ACPI/ACPIMain.o
 .group         0x0000000000000000        0x8 ./build/Drivers/Generic/ACPI/ACPIMain.o
 .group         0x0000000000000000        0xc ./build/Drivers/Generic/ACPI/ACPIMain.o
 .group         0x0000000000000000        0x8 ./build/Drivers/Generic/ACPI/ACPIMain.o
 .group         0x0000000000000000        0x8 ./build/Drivers/Generic/ACPI/ACPIMain.o
 .group         0x0000000000000000        0xc ./build/Drivers/Generic/ACPI/ACPIMain.o
 .comment       0x0000000000000000       0x13 ./build/Drivers/Generic/ACPI/ACPIMain.o
 .group         0x0000000000000000        0xc ./build/Drivers/Generic/ACPI/ACPITimerImpl.o
 .group         0x0000000000000000        0xc ./build/Drivers/Generic/ACPI/ACPITimerImpl.o
 .group         0x0000000000000000        0xc ./build/Drivers/Generic/ACPI/ACPITimerImpl.o
 .comment       0x0000000000000000       0x13 ./build/Drivers/Generic/ACPI/ACPITimerImpl.o
 .group         0x0000000000000000        0x8 ./build/Drivers/Clock/HPET/HPETTimerImpl.o
 .group         0x0000000000000000        0xc ./build/Drivers/Clock/HPET/HPETTimerImpl.o
 .group         0x0000000000000000        0xc ./build/Drivers/Clock/HPET/HPETTimerImpl.o
 .group         0x0000000000000000        0xc ./build/Drivers/Clock/HPET/HPETTimerImpl.o
 .comment       0x0000000000000000       0x13 ./build/Drivers/Clock/HPET/HPETTimerImpl.o
 .group         0x0000000000000000        0x8 ./build/Drivers/Input/PS2LegacyController.o
 .group         0x0000000000000000        0xc ./build/Drivers/Input/PS2LegacyController.o
 .group         0x0000000000000000        0xc ./build/Drivers/Input/PS2LegacyController.o
 .group         0x0000000000000000        0xc ./build/Drivers/Input/PS2LegacyController.o
 .group         0x0000000000000000        0xc ./build/Drivers/Input/PS2LegacyController.o
 .group         0x0000000000000000        0xc ./build/Drivers/Input/PS2LegacyController.o
 .group         0x0000000000000000        0xc ./build/Drivers/Input/PS2LegacyController.o
 .comment       0x0000000000000000       0x13 ./build/Drivers/Input/PS2LegacyController.o
 .group         0x0000000000000000        0x8 ./build/Drivers/Input/PS2LegacyKeyboardImpl.o
 .group         0x0000000000000000        0xc ./build/Drivers/Input/PS2LegacyKeyboardImpl.o
 .group         0x0000000000000000        0xc ./build/Drivers/Input/PS2LegacyKeyboardImpl.o
 .group         0x0000000000000000        0xc ./build/Drivers/Input/PS2LegacyKeyboardImpl.o
 .group         0x0000000000000000        0xc ./build/Drivers/Input/PS2LegacyKeyboardImpl.o
 .comment       0x0000000000000000       0x13 ./build/Drivers/Input/PS2LegacyKeyboardImpl.o
 .comment       0x0000000000000000       0x13 ./build/String.o
 .group         0x0000000000000000        0x8 ./build/Memory/Memory.o
 .group         0x0000000000000000        0x8 ./build/Memory/Memory.o
 .group         0x0000000000000000        0x8 ./build/Memory/Memory.o
 .group         0x0000000000000000        0x8 ./build/Memory/Memory.o
 .comment       0x0000000000000000       0x13 ./build/Memory/Memory.o
 .group         0x0000000000000000        0x8 ./build/Memory/Page.o
 .group         0x0000000000000000        0x8 ./build/Memory/Page.o
 .group         0x0000000000000000       0x14 ./build/Memory/Page.o
 .group         0x0000000000000000        0xc ./build/Memory/Page.o
 .group         0x0000000000000000        0xc ./build/Memory/Page.o
 .group         0x0000000000000000        0x8 ./build/Memory/Page.o
 .group         0x0000000000000000        0x8 ./build/Memory/Page.o
 .group         0x0000000000000000        0xc ./build/Memory/Page.o
 .group         0x0000000000000000        0xc ./build/Memory/Page.o
 .group         0x0000000000000000        0x8 ./build/Memory/Page.o
 .group         0x0000000000000000        0xc ./build/Memory/Page.o
 .group         0x0000000000000000        0x8 ./build/Memory/Page.o
 .group         0x0000000000000000        0x8 ./build/Memory/Page.o
 .group         0x0000000000000000        0xc ./build/Memory/Page.o
 .comment       0x0000000000000000       0x13 ./build/Memory/Page.o
 .comment       0x0000000000000000       0x13 ./build/Memory/SlabAllocatorImpl.o
 .group         0x0000000000000000        0x8 ./build/Process/ProcessImpl.o
 .group         0x0000000000000000        0x8 ./build/Process/ProcessImpl.o
 .group         0x0000000000000000        0x8 ./build/Process/ProcessImpl.o
 .group         0x0000000000000000        0xc ./build/Process/ProcessImpl.o
 .group         0x0000000000000000        0xc ./build/Process/ProcessImpl.o
 .comment       0x0000000000000000       0x13 ./build/Process/ProcessImpl.o
 .group         0x0000000000000000        0x8 ./build/Process/ActivityManagement.o
 .group         0x0000000000000000        0xc ./build/Process/ActivityManagement.o
 .group         0x0000000000000000        0xc ./build/Process/ActivityManagement.o
 .comment       0x0000000000000000       0x13 ./build/Process/ActivityManagement.o
 .group         0x0000000000000000        0x8 ./build/Process/SchedulerImpl.o
 .group         0x0000000000000000        0xc ./build/Process/SchedulerImpl.o
 .group         0x0000000000000000        0x8 ./build/Process/SchedulerImpl.o
 .group         0x0000000000000000        0x8 ./build/Process/SchedulerImpl.o
 .group         0x0000000000000000        0x8 ./build/Process/SchedulerImpl.o
 .comment       0x0000000000000000       0x13 ./build/Process/SchedulerImpl.o
 .comment       0x0000000000000000       0x13 ./build/Process/Scheduler.o
 .group         0x0000000000000000        0x8 ./build/Process/ActivityImpl.o
 .group         0x0000000000000000        0x8 ./build/Process/ActivityImpl.o
 .group         0x0000000000000000        0x8 ./build/Process/ActivityImpl.o
 .group         0x0000000000000000        0xc ./build/Process/ActivityImpl.o
 .group         0x0000000000000000        0x8 ./build/Process/ActivityImpl.o
 .group         0x0000000000000000        0xc ./build/Process/ActivityImpl.o
 .comment       0x0000000000000000       0x13 ./build/Process/ActivityImpl.o
 .group         0x0000000000000000        0x8 ./build/Arch/x86_64/SMP.o
 .comment       0x0000000000000000       0x13 ./build/Arch/x86_64/SMP.o
 .group         0x0000000000000000        0x8 ./build/Arch/x86_64/BootX64.o
 .group         0x0000000000000000        0x8 ./build/Arch/x86_64/BootX64.o
 .comment       0x0000000000000000       0x13 ./build/Arch/x86_64/BootX64.o
 .comment       0x0000000000000000       0x13 ./build/Arch/x86_64/PIT.o
 .comment       0x0000000000000000       0x13 ./build/Arch/x86_64/PIC.o
 .comment       0x0000000000000000       0x13 ./build/Arch/x86_64/IDT.o
 .group         0x0000000000000000        0x8 ./build/Arch/x86_64/TaskStateSegment.o
 .comment       0x0000000000000000       0x13 ./build/Arch/x86_64/TaskStateSegment.o
 .group         0x0000000000000000        0x8 ./build/Arch/x86_64/CPU.o
 .group         0x0000000000000000        0x8 ./build/Arch/x86_64/CPU.o
 .group         0x0000000000000000        0x8 ./build/Arch/x86_64/CPU.o
 .group         0x0000000000000000        0x8 ./build/Arch/x86_64/CPU.o
 .comment       0x0000000000000000       0x13 ./build/Arch/x86_64/CPU.o
 .group         0x0000000000000000        0x8 ./build/Arch/x86_64/GDT.o
 .group         0x0000000000000000        0x8 ./build/Arch/x86_64/GDT.o
 .comment       0x0000000000000000       0x13 ./build/Arch/x86_64/GDT.o
 .comment       0x0000000000000000       0x13 ./build/Arch/x86_64/Arch.o
 .comment       0x0000000000000000       0x13 ./build/Arch/x86_64/SchedulerArchImpl.o
 .group         0x0000000000000000        0xc ./build/Arch/x86_64/MMU.o
 .group         0x0000000000000000        0xc ./build/Arch/x86_64/MMU.o
 .group         0x0000000000000000        0x8 ./build/Arch/x86_64/MMU.o
 .group         0x0000000000000000        0x8 ./build/Arch/x86_64/MMU.o
 .group         0x0000000000000000        0x8 ./build/Arch/x86_64/MMU.o
 .group         0x0000000000000000        0x8 ./build/Arch/x86_64/MMU.o
 .group         0x0000000000000000        0xc ./build/Arch/x86_64/MMU.o
 .group         0x0000000000000000        0x8 ./build/Arch/x86_64/MMU.o
 .group         0x0000000000000000        0xc ./build/Arch/x86_64/MMU.o
 .comment       0x0000000000000000       0x13 ./build/Arch/x86_64/MMU.o
 .group         0x0000000000000000        0x8 ./build/Arch/x86_64/AddressSpace.o
 .group         0x0000000000000000        0xc ./build/Arch/x86_64/AddressSpace.o
 .group         0x0000000000000000        0xc ./build/Arch/x86_64/AddressSpace.o
 .comment       0x0000000000000000       0x13 ./build/Arch/x86_64/AddressSpace.o
 .group         0x0000000000000000        0x8 ./build/Arch/x86_64/Interrupts.o
 .comment       0x0000000000000000       0x13 ./build/Arch/x86_64/Interrupts.o
 .comment       0x0000000000000000       0x13 ./build/Arch/x86_64/SMBIOS.o
 .comment       0x0000000000000000       0x13 ./build/Input/KeyCode.o
 .comment       0x0000000000000000       0x13 ./build/Input/ConsoleImpl.o
 .group         0x0000000000000000        0xc ./build/Fs/DiskDeviceImpl.o
 .comment       0x0000000000000000       0x13 ./build/Fs/DiskDeviceImpl.o

Memory Configuration

Name             Origin             Length             Attributes
*default*        0x0000000000000000 0xffffffffffffffff

Linker script and memory map

                0xffffffff80000000                KERNEL_VMA = 0xffffffff80000000
                0x0000000000100000                . = 0x100000

.boot.text      0x0000000000100000       0x44
 *(.boot.text)
 .boot.text     0x0000000000100000       0x44 ./build/Arch/x86_64/Header.o

.boot.data      0x0000000000100044      0xfbc
 *(.boot.data)
                0x0000000000101000                . = ALIGN (0x1000)
 *fill*         0x0000000000100044      0xfbc 
                0xffffffff80101000                . = (. + KERNEL_VMA)
                0xffffffff80101000                KERNEL_START_ADDR = .

.stivalehdr
 *(.stivalehdr)

.stivale2hdr    0xffffffff80101000       0x20 load address 0x0000000000101000
 *(.stivale2hdr)
 .stivale2hdr   0xffffffff80101000       0x20 ./build/Arch/x86_64/Header.o

.text           0xffffffff80102000     0xbcf4 load address 0x0000000000102000
 *(.text*)
 .text          0xffffffff80102000       0x1f ./build/Video/VideoControllerImpl.o
                0xffffffff80102000                Video::VideoController::VideoController()
                0xffffffff80102000                Video::VideoController::VideoController()
                0xffffffff80102010                Video::VideoController::~VideoController()
                0xffffffff80102010                Video::VideoController::~VideoController()
 *fill*         0xffffffff8010201f        0x1 
 .text          0xffffffff80102020      0x423 ./build/Video/TextModePresenterImpl.o
                0xffffffff80102020                Video::TextModePresenter::TextModePresenter()
                0xffffffff80102020                Video::TextModePresenter::TextModePresenter()
                0xffffffff8010206a                Video::TextModePresenter::Clear()
                0xffffffff801020ca                Video::TextModePresenter::Text(Video::Point, char const*, int)
                0xffffffff80102104                Video::TextModePresenter::Text(Video::Point, char const*, unsigned char, unsigned char)
                0xffffffff8010227e                Video::TextModePresenter::Text(Video::Point, char, unsigned char, unsigned char)
                0xffffffff801022e4                Video::TextModePresenter::MoveUp()
                0xffffffff801023a2                Video::TextModePresenter::Rectangle(Video::Point, int, int)
 .text._ZN8Integers17ConstraintToRangeEmmm
                0xffffffff80102443       0x3e ./build/Video/TextModePresenterImpl.o
                0xffffffff80102443                Integers::ConstraintToRange(unsigned long, unsigned long, unsigned long)
 *fill*         0xffffffff80102481        0x1 
 .text          0xffffffff80102482       0x5b ./build/Video/VideoPresenterImpl.o
                0xffffffff80102482                Video::VideoPresenter::VideoPresenter()
                0xffffffff80102482                Video::VideoPresenter::VideoPresenter()
                0xffffffff801024b0                Video::VideoPresenter::~VideoPresenter()
                0xffffffff801024b0                Video::VideoPresenter::~VideoPresenter()
 *fill*         0xffffffff801024dd        0x1 
 .text._ZN8Spinlock7ReleaseEv
                0xffffffff801024de       0x1a ./build/Video/VideoPresenterImpl.o
                0xffffffff801024de                Spinlock::Release()
 .text._ZN10LinkedListIPN5Video11VideoOutputEEC2Ev
                0xffffffff801024f8       0x3c ./build/Video/VideoPresenterImpl.o
                0xffffffff801024f8                LinkedList<Video::VideoOutput*>::LinkedList()
                0xffffffff801024f8                LinkedList<Video::VideoOutput*>::LinkedList()
 .text._ZN10LinkedListIPN5Video11VideoOutputEED2Ev
                0xffffffff80102534       0x1f ./build/Video/VideoPresenterImpl.o
                0xffffffff80102534                LinkedList<Video::VideoOutput*>::~LinkedList()
                0xffffffff80102534                LinkedList<Video::VideoOutput*>::~LinkedList()
 .text          0xffffffff80102553        0x0 ./build/Video/FrameBufferPresenterImpl.o
 .text          0xffffffff80102553      0x13d ./build/System.o
                0xffffffff80102553                System::Out(char const*, ...)
                0xffffffff801025af                System::Panic(char const*, ...)
                0xffffffff80102600                Sleep(long)
                0xffffffff80102648                KernelInit()
 .text._ZN6Device8RegisterEv
                0xffffffff80102690       0x1b ./build/System.o
                0xffffffff80102690                Device::Register()
 .text          0xffffffff801026ab       0xed ./build/Runtime.o
                0xffffffff801026ab                operator new(unsigned long)
                0xffffffff801026cf                operator new[](unsigned long)
                0xffffffff801026f3                operator delete(void*)
                0xffffffff80102718                operator delete(void*, unsigned long)
                0xffffffff80102737                operator delete[](void*)
                0xffffffff8010275c                operator delete[](void*, unsigned long)
                0xffffffff8010277b                __cxa_pure_virtual
 .text          0xffffffff80102798      0x367 ./build/libkern/printf.o
                0xffffffff80102798                puts(char const*)
                0xffffffff801027d3                printf(char const*, ...)
                0xffffffff80102820                vprintf(char const*, __va_list_tag*)
 .text          0xffffffff80102aff      0x27e ./build/libkern/sprintf.o
                0xffffffff80102aff                itoa(int, char*, int)
                0xffffffff80102c61                utoa(unsigned long, char*, int)
 .text          0xffffffff80102d7d        0x0 ./build/Device/ComputerDeviceImpl.o
 *fill*         0xffffffff80102d7d        0x1 
 .text          0xffffffff80102d7e       0x57 ./build/Device/DeviceImpl.o
                0xffffffff80102d7e                Device::Device(char const*, DeviceBus, DeviceType)
                0xffffffff80102d7e                Device::Device(char const*, DeviceBus, DeviceType)
 *fill*         0xffffffff80102dd5        0x1 
 .text._ZN10LinkedListIP6DeviceEC2Ev
                0xffffffff80102dd6       0x3c ./build/Device/DeviceImpl.o
                0xffffffff80102dd6                LinkedList<Device*>::LinkedList()
                0xffffffff80102dd6                LinkedList<Device*>::LinkedList()
 .text          0xffffffff80102e12       0xfc ./build/Device/DeviceStaticImpl.o
                0xffffffff80102e12                Device::GetDevice(char const*)
                0xffffffff80102e20                Device::GetDevice(unsigned long)
                0xffffffff80102e2e                Device::RegisterDevice(Device*)
                0xffffffff80102e9a                Device::GetProvider(DeviceBus)
                0xffffffff80102ebc                Device::EnumerateDevice(DeviceType)
 .text._ZN8Spinlock7AcquireEv
                0xffffffff80102f0e       0x28 ./build/Device/DeviceStaticImpl.o
                0xffffffff80102f0e                Spinlock::Acquire()
 .text._ZN10LinkedListIP6DeviceED2Ev
                0xffffffff80102f36       0x1f ./build/Device/DeviceStaticImpl.o
                0xffffffff80102f36                LinkedList<Device*>::~LinkedList()
                0xffffffff80102f36                LinkedList<Device*>::~LinkedList()
 *fill*         0xffffffff80102f55        0x1 
 .text._ZN14SizedArrayListIP14DeviceProviderLi4EEC2Ev
                0xffffffff80102f56       0x27 ./build/Device/DeviceStaticImpl.o
                0xffffffff80102f56                SizedArrayList<DeviceProvider*, 4>::SizedArrayList()
                0xffffffff80102f56                SizedArrayList<DeviceProvider*, 4>::SizedArrayList()
 *fill*         0xffffffff80102f7d        0x1 
 .text._ZN14SizedArrayListI10LinkedListIP6DeviceELi20EEC2Ev
                0xffffffff80102f7e       0x5a ./build/Device/DeviceStaticImpl.o
                0xffffffff80102f7e                SizedArrayList<LinkedList<Device*>, 20>::SizedArrayList()
                0xffffffff80102f7e                SizedArrayList<LinkedList<Device*>, 20>::SizedArrayList()
 .text._ZN14SizedArrayListI10LinkedListIP6DeviceELi20EEixEi
                0xffffffff80102fd8       0x38 ./build/Device/DeviceStaticImpl.o
                0xffffffff80102fd8                SizedArrayList<LinkedList<Device*>, 20>::operator[](int)
 .text._ZN10LinkedListIP6DeviceE3AddES1_
                0xffffffff80103010       0x4e ./build/Device/DeviceStaticImpl.o
                0xffffffff80103010                LinkedList<Device*>::Add(Device*)
 .text._ZN14SizedArrayListIP14DeviceProviderLi4EEixEi
                0xffffffff8010305e       0x32 ./build/Device/DeviceStaticImpl.o
                0xffffffff8010305e                SizedArrayList<DeviceProvider*, 4>::operator[](int)
 .text._ZN8ListNodeIP6DeviceEC2ES1_
                0xffffffff80103090       0x1f ./build/Device/DeviceStaticImpl.o
                0xffffffff80103090                ListNode<Device*>::ListNode(Device*)
                0xffffffff80103090                ListNode<Device*>::ListNode(Device*)
 *fill*         0xffffffff801030af        0x1 
 .text._ZN10LinkedListIP6DeviceE3AddEP8ListNodeIS1_E
                0xffffffff801030b0       0x90 ./build/Device/DeviceStaticImpl.o
                0xffffffff801030b0                LinkedList<Device*>::Add(ListNode<Device*>*)
 .text._ZN14SizedArrayListI10LinkedListIP6DeviceELi20EED2Ev
                0xffffffff80103140       0x3f ./build/Device/DeviceStaticImpl.o
                0xffffffff80103140                SizedArrayList<LinkedList<Device*>, 20>::~SizedArrayList()
                0xffffffff80103140                SizedArrayList<LinkedList<Device*>, 20>::~SizedArrayList()
 .text          0xffffffff8010317f       0x44 ./build/Device/DeviceManagement.o
 *fill*         0xffffffff801031c3        0x1 
 .text          0xffffffff801031c4      0x36f ./build/Drivers/Storage/AHCI/AHCIControllerDeviceImpl.o
                0xffffffff80103278                AHCI::AHCIControllerDevice::AHCIControllerDevice(PCI::PCIInfo)
                0xffffffff80103278                AHCI::AHCIControllerDevice::AHCIControllerDevice(PCI::PCIInfo)
                0xffffffff80103514                AHCI::AHCIControllerDevice::Enable()
                0xffffffff80103524                AHCI::AHCIControllerDevice::Disable()
 *fill*         0xffffffff80103533        0x1 
 .text._ZN3PCI9PCIDeviceC2ERNS_7PCIInfoE
                0xffffffff80103534       0x5d ./build/Drivers/Storage/AHCI/AHCIControllerDeviceImpl.o
                0xffffffff80103534                PCI::PCIDevice::PCIDevice(PCI::PCIInfo&)
                0xffffffff80103534                PCI::PCIDevice::PCIDevice(PCI::PCIInfo&)
 *fill*         0xffffffff80103591        0x1 
 .text._ZN3PCI9PCIDevice22GetBaseAddressRegisterEh
                0xffffffff80103592       0xdb ./build/Drivers/Storage/AHCI/AHCIControllerDeviceImpl.o
                0xffffffff80103592                PCI::PCIDevice::GetBaseAddressRegister(unsigned char)
 *fill*         0xffffffff8010366d        0x1 
 .text._ZN3PCI9PCIDevice18EnableBusMasteringEv
                0xffffffff8010366e       0x72 ./build/Drivers/Storage/AHCI/AHCIControllerDeviceImpl.o
                0xffffffff8010366e                PCI::PCIDevice::EnableBusMastering()
 .text._ZN3PCI9PCIDevice16EnableInterruptsEv
                0xffffffff801036e0       0x76 ./build/Drivers/Storage/AHCI/AHCIControllerDeviceImpl.o
                0xffffffff801036e0                PCI::PCIDevice::EnableInterrupts()
 .text._ZN3PCI9PCIDevice17EnableMemorySpaceEv
                0xffffffff80103756       0x72 ./build/Drivers/Storage/AHCI/AHCIControllerDeviceImpl.o
                0xffffffff80103756                PCI::PCIDevice::EnableMemorySpace()
 .text._ZN4AHCI14SATADiskDevice6StatusEv
                0xffffffff801037c8       0x15 ./build/Drivers/Storage/AHCI/AHCIControllerDeviceImpl.o
                0xffffffff801037c8                AHCI::SATADiskDevice::Status()
 *fill*         0xffffffff801037dd        0x1 
 .text._ZN10LinkedListIPN4AHCI14SATADiskDeviceEEC2Ev
                0xffffffff801037de       0x3c ./build/Drivers/Storage/AHCI/AHCIControllerDeviceImpl.o
                0xffffffff801037de                LinkedList<AHCI::SATADiskDevice*>::LinkedList()
                0xffffffff801037de                LinkedList<AHCI::SATADiskDevice*>::LinkedList()
 .text._ZN10LinkedListIPN4AHCI14SATADiskDeviceEE3AddES2_
                0xffffffff8010381a       0x4e ./build/Drivers/Storage/AHCI/AHCIControllerDeviceImpl.o
                0xffffffff8010381a                LinkedList<AHCI::SATADiskDevice*>::Add(AHCI::SATADiskDevice*)
 .text._ZN8ListNodeIPN4AHCI14SATADiskDeviceEEC2ES2_
                0xffffffff80103868       0x1f ./build/Drivers/Storage/AHCI/AHCIControllerDeviceImpl.o
                0xffffffff80103868                ListNode<AHCI::SATADiskDevice*>::ListNode(AHCI::SATADiskDevice*)
                0xffffffff80103868                ListNode<AHCI::SATADiskDevice*>::ListNode(AHCI::SATADiskDevice*)
 *fill*         0xffffffff80103887        0x1 
 .text._ZN10LinkedListIPN4AHCI14SATADiskDeviceEE3AddEP8ListNodeIS2_E
                0xffffffff80103888       0x90 ./build/Drivers/Storage/AHCI/AHCIControllerDeviceImpl.o
                0xffffffff80103888                LinkedList<AHCI::SATADiskDevice*>::Add(ListNode<AHCI::SATADiskDevice*>*)
 .text          0xffffffff80103918      0x11d ./build/Drivers/Storage/AHCI/AHCIMain.o
                0xffffffff8010395e                AHCI::Initialize()
 *fill*         0xffffffff80103a35        0x1 
 .text._ZN3PCI9PCIDevice8VendorIDEv
                0xffffffff80103a36       0x16 ./build/Drivers/Storage/AHCI/AHCIMain.o
                0xffffffff80103a36                PCI::PCIDevice::VendorID()
 .text          0xffffffff80103a4c      0x6a2 ./build/Drivers/Storage/AHCI/SATADiskDeviceImpl.o
                0xffffffff80103a4c                AHCI::SATADiskDevice::SATADiskDevice(int, AHCI::HBAPortRegisters*, AHCI::AHCIControllerDevice*)
                0xffffffff80103a4c                AHCI::SATADiskDevice::SATADiskDevice(int, AHCI::HBAPortRegisters*, AHCI::AHCIControllerDevice*)
                0xffffffff80103c36                AHCI::SATADiskDevice::~SATADiskDevice()
                0xffffffff80103c36                AHCI::SATADiskDevice::~SATADiskDevice()
                0xffffffff80103c60                AHCI::SATADiskDevice::Enable()
                0xffffffff80103c70                AHCI::SATADiskDevice::Disable()
                0xffffffff80103c80                AHCI::SATADiskDevice::Read(unsigned long, unsigned int, void*)
                0xffffffff80103cb6                AHCI::SATADiskDevice::Write(unsigned long, unsigned int, void*)
                0xffffffff80103cec                AHCI::SATADiskDevice::Access(unsigned long, unsigned int, unsigned long, int)
                0xffffffff8010400e                AHCI::SATADiskDevice::StartCommand()
                0xffffffff8010404c                AHCI::SATADiskDevice::FindCommandSlot()
                0xffffffff8010409c                AHCI::SATADiskDevice::StopCommand()
 .text._ZN6DeviceD2Ev
                0xffffffff801040ee       0x2d ./build/Drivers/Storage/AHCI/SATADiskDeviceImpl.o
                0xffffffff801040ee                Device::~Device()
                0xffffffff801040ee                Device::~Device()
 *fill*         0xffffffff8010411b        0x1 
 .text._ZN10DiskDeviceC2EPKc9DeviceBus
                0xffffffff8010411c       0x3c ./build/Drivers/Storage/AHCI/SATADiskDeviceImpl.o
                0xffffffff8010411c                DiskDevice::DiskDevice(char const*, DeviceBus)
                0xffffffff8010411c                DiskDevice::DiskDevice(char const*, DeviceBus)
 .text._ZN10DiskDeviceD2Ev
                0xffffffff80104158       0x29 ./build/Drivers/Storage/AHCI/SATADiskDeviceImpl.o
                0xffffffff80104158                DiskDevice::~DiskDevice()
                0xffffffff80104158                DiskDevice::~DiskDevice()
 *fill*         0xffffffff80104181        0x1 
 .text._ZN10DiskDeviceC2EPKc
                0xffffffff80104182       0x2b ./build/Drivers/Storage/AHCI/SATADiskDeviceImpl.o
                0xffffffff80104182                DiskDevice::DiskDevice(char const*)
                0xffffffff80104182                DiskDevice::DiskDevice(char const*)
 *fill*         0xffffffff801041ad        0x1 
 .text._ZN4AHCI20AHCIControllerDevice15MemoryRegistersEv
                0xffffffff801041ae       0x19 ./build/Drivers/Storage/AHCI/SATADiskDeviceImpl.o
                0xffffffff801041ae                AHCI::AHCIControllerDevice::MemoryRegisters()
 *fill*         0xffffffff801041c7        0x1 
 .text          0xffffffff801041c8      0x46b ./build/Drivers/Bus/PCI/PCIDeviceProviderImpl.o
                0xffffffff801041c8                PCI::PCIDeviceProvider::PCIDeviceProvider()
                0xffffffff801041c8                PCI::PCIDeviceProvider::PCIDeviceProvider()
                0xffffffff80104456                PCI::PCIDeviceProvider::~PCIDeviceProvider()
                0xffffffff80104456                PCI::PCIDeviceProvider::~PCIDeviceProvider()
                0xffffffff80104494                PCI::PCIDeviceProvider::FindName(char const*)
                0xffffffff801044a6                PCI::PCIDeviceProvider::ConnectDevice(unsigned char, unsigned char, unsigned char)
                0xffffffff80104512                PCI::PCIDeviceProvider::CheckDevice(unsigned char, unsigned char, unsigned char)
                0xffffffff8010454a                PCI::PCIDeviceProvider::FindDevice(unsigned short, unsigned short)
                0xffffffff80104566                PCI::PCIDeviceProvider::FindGenericDevice(unsigned short, unsigned short)
                0xffffffff801045f6                PCI::PCIDeviceProvider::EnumerateDevice(unsigned short, unsigned short, void (*)(PCI::PCIInfo&))
                0xffffffff80104616                PCI::PCIDeviceProvider::EnumerateGenericDevice(unsigned char, unsigned char, void (*)(PCI::PCIInfo&))
 *fill*         0xffffffff80104633        0x1 
 .text._ZN3PCI7PCIInfoC2Ehhhhh
                0xffffffff80104634       0xbf ./build/Drivers/Bus/PCI/PCIDeviceProviderImpl.o
                0xffffffff80104634                PCI::PCIInfo::PCIInfo(unsigned char, unsigned char, unsigned char, unsigned char, unsigned char)
                0xffffffff80104634                PCI::PCIInfo::PCIInfo(unsigned char, unsigned char, unsigned char, unsigned char, unsigned char)
 *fill*         0xffffffff801046f3        0x1 
 .text._ZN3PCI7PCIInfoC2Ehhh
                0xffffffff801046f4       0x75 ./build/Drivers/Bus/PCI/PCIDeviceProviderImpl.o
                0xffffffff801046f4                PCI::PCIInfo::PCIInfo(unsigned char, unsigned char, unsigned char)
                0xffffffff801046f4                PCI::PCIInfo::PCIInfo(unsigned char, unsigned char, unsigned char)
 *fill*         0xffffffff80104769        0x1 
 .text._ZN14DeviceProviderC2Ev
                0xffffffff8010476a       0x1d ./build/Drivers/Bus/PCI/PCIDeviceProviderImpl.o
                0xffffffff8010476a                DeviceProvider::DeviceProvider()
                0xffffffff8010476a                DeviceProvider::DeviceProvider()
 *fill*         0xffffffff80104787        0x1 
 .text._ZN10LinkedListIN3PCI7PCIInfoEEC2Ev
                0xffffffff80104788       0x3c ./build/Drivers/Bus/PCI/PCIDeviceProviderImpl.o
                0xffffffff80104788                LinkedList<PCI::PCIInfo>::LinkedList()
                0xffffffff80104788                LinkedList<PCI::PCIInfo>::LinkedList()
 .text._ZN10LinkedListIN3PCI7PCIInfoEED2Ev
                0xffffffff801047c4       0x1f ./build/Drivers/Bus/PCI/PCIDeviceProviderImpl.o
                0xffffffff801047c4                LinkedList<PCI::PCIInfo>::~LinkedList()
                0xffffffff801047c4                LinkedList<PCI::PCIInfo>::~LinkedList()
 *fill*         0xffffffff801047e3        0x1 
 .text._ZN10LinkedListIP11MCFGAddressEC2Ev
                0xffffffff801047e4       0x3c ./build/Drivers/Bus/PCI/PCIDeviceProviderImpl.o
                0xffffffff801047e4                LinkedList<MCFGAddress*>::LinkedList()
                0xffffffff801047e4                LinkedList<MCFGAddress*>::LinkedList()
 .text._ZN10LinkedListIP11MCFGAddressED2Ev
                0xffffffff80104820       0x1f ./build/Drivers/Bus/PCI/PCIDeviceProviderImpl.o
                0xffffffff80104820                LinkedList<MCFGAddress*>::~LinkedList()
                0xffffffff80104820                LinkedList<MCFGAddress*>::~LinkedList()
 *fill*         0xffffffff8010483f        0x1 
 .text._ZN10LinkedListIN3PCI7PCIInfoEEaSERKS2_
                0xffffffff80104840       0x12 ./build/Drivers/Bus/PCI/PCIDeviceProviderImpl.o
                0xffffffff80104840                LinkedList<PCI::PCIInfo>::operator=(LinkedList<PCI::PCIInfo> const&)
 .text._ZN10LinkedListIP11MCFGAddressEaSERKS2_
                0xffffffff80104852       0x12 ./build/Drivers/Bus/PCI/PCIDeviceProviderImpl.o
                0xffffffff80104852                LinkedList<MCFGAddress*>::operator=(LinkedList<MCFGAddress*> const&)
 .text._ZN10LinkedListIP11MCFGAddressE3AddES1_
                0xffffffff80104864       0x4e ./build/Drivers/Bus/PCI/PCIDeviceProviderImpl.o
                0xffffffff80104864                LinkedList<MCFGAddress*>::Add(MCFGAddress*)
 .text._ZN10LinkedListIN3PCI7PCIInfoEE3AddES1_
                0xffffffff801048b2       0x5d ./build/Drivers/Bus/PCI/PCIDeviceProviderImpl.o
                0xffffffff801048b2                LinkedList<PCI::PCIInfo>::Add(PCI::PCIInfo)
 *fill*         0xffffffff8010490f        0x1 
 .text._ZN10LinkedListIN3PCI7PCIInfoEE5CountEv
                0xffffffff80104910       0x15 ./build/Drivers/Bus/PCI/PCIDeviceProviderImpl.o
                0xffffffff80104910                LinkedList<PCI::PCIInfo>::Count()
 *fill*         0xffffffff80104925        0x1 
 .text._ZN10LinkedListIN3PCI7PCIInfoEEixEi
                0xffffffff80104926       0x22 ./build/Drivers/Bus/PCI/PCIDeviceProviderImpl.o
                0xffffffff80104926                LinkedList<PCI::PCIInfo>::operator[](int)
 .text._ZN8ListNodeIP11MCFGAddressEC2ES1_
                0xffffffff80104948       0x1f ./build/Drivers/Bus/PCI/PCIDeviceProviderImpl.o
                0xffffffff80104948                ListNode<MCFGAddress*>::ListNode(MCFGAddress*)
                0xffffffff80104948                ListNode<MCFGAddress*>::ListNode(MCFGAddress*)
 *fill*         0xffffffff80104967        0x1 
 .text._ZN10LinkedListIP11MCFGAddressE3AddEP8ListNodeIS1_E
                0xffffffff80104968       0x90 ./build/Drivers/Bus/PCI/PCIDeviceProviderImpl.o
                0xffffffff80104968                LinkedList<MCFGAddress*>::Add(ListNode<MCFGAddress*>*)
 .text._ZN8ListNodeIN3PCI7PCIInfoEEC2ES1_
                0xffffffff801049f8       0x30 ./build/Drivers/Bus/PCI/PCIDeviceProviderImpl.o
                0xffffffff801049f8                ListNode<PCI::PCIInfo>::ListNode(PCI::PCIInfo)
                0xffffffff801049f8                ListNode<PCI::PCIInfo>::ListNode(PCI::PCIInfo)
 .text._ZN10LinkedListIN3PCI7PCIInfoEE3AddEP8ListNodeIS1_E
                0xffffffff80104a28       0x90 ./build/Drivers/Bus/PCI/PCIDeviceProviderImpl.o
                0xffffffff80104a28                LinkedList<PCI::PCIInfo>::Add(ListNode<PCI::PCIInfo>*)
 .text._ZN10LinkedListIN3PCI7PCIInfoEE3GetEj
                0xffffffff80104ab8       0x70 ./build/Drivers/Bus/PCI/PCIDeviceProviderImpl.o
                0xffffffff80104ab8                LinkedList<PCI::PCIInfo>::Get(unsigned int)
 .text          0xffffffff80104b28      0x4a9 ./build/Drivers/Bus/PCI/PCIMain.o
                0xffffffff80104b61                PCI::MsiCapSetData(PCI::MSICapability*, unsigned int)
                0xffffffff80104b9d                PCI::MsiCapGetData(PCI::MSICapability*)
                0xffffffff80104bcf                PCI::MsiCapSetAddress(PCI::MSICapability*, int)
                0xffffffff80104c14                PCI::ConfigReadDword(unsigned char, unsigned char, unsigned char, unsigned char)
                0xffffffff80104c71                PCI::ConfigReadWord(unsigned char, unsigned char, unsigned char, unsigned char)
                0xffffffff80104cdc                PCI::ConfigReadByte(unsigned char, unsigned char, unsigned char, unsigned char)
                0xffffffff80104d47                PCI::ConfigWriteDword(unsigned char, unsigned char, unsigned char, unsigned char, unsigned int)
                0xffffffff80104dae                PCI::ConfigWriteWord(unsigned char, unsigned char, unsigned char, unsigned char, unsigned short)
                0xffffffff80104e50                PCI::ConfigWriteByte(unsigned char, unsigned char, unsigned char, unsigned char, unsigned char)
                0xffffffff80104ef1                PCI::GetVendor(unsigned char, unsigned char, unsigned char)
                0xffffffff80104f2c                PCI::GetDeviceID(unsigned char, unsigned char, unsigned char)
                0xffffffff80104f67                PCI::GetHeaderType(unsigned char, unsigned char, unsigned char)
                0xffffffff80104f9a                PCI::CheckDevice(unsigned char, unsigned char, unsigned char)
 *fill*         0xffffffff80104fd1        0x1 
 .text          0xffffffff80104fd2       0xc1 ./build/Drivers/Bus/PCI/PCIDeviceImpl.o
                0xffffffff80104fd2                PCI::PCIDevice::PCIDevice(unsigned char, unsigned char, unsigned char, unsigned char, unsigned char)
                0xffffffff80104fd2                PCI::PCIDevice::PCIDevice(unsigned char, unsigned char, unsigned char, unsigned char, unsigned char)
                0xffffffff8010504a                PCI::PCIDevice::~PCIDevice()
                0xffffffff8010504a                PCI::PCIDevice::~PCIDevice()
                0xffffffff80105074                PCI::PCIDevice::Enable()
                0xffffffff80105084                PCI::PCIDevice::Disable()
 *fill*         0xffffffff80105093        0x1 
 .text._ZN6DeviceC2E9DeviceBus10DeviceType
                0xffffffff80105094       0x2c ./build/Drivers/Bus/PCI/PCIDeviceImpl.o
                0xffffffff80105094                Device::Device(DeviceBus, DeviceType)
                0xffffffff80105094                Device::Device(DeviceBus, DeviceType)
 .text          0xffffffff801050c0      0x1c4 ./build/Drivers/Video.o
                0xffffffff801050c0                Video::Initialize()
                0xffffffff801050e4                Video::Newline()
                0xffffffff80105120                Video::CheckIfLineFulled()
                0xffffffff80105144                Video::ClearScreen()
                0xffffffff801051aa                Video::WriteChar(char)
                0xffffffff8010520e                Video::WriteText(char const*)
                0xffffffff8010523b                Video::WriteText(char const*, unsigned long)
 .text          0xffffffff80105284      0x382 ./build/Drivers/Generic/APIC/IO.o
                0xffffffff80105284                APIC::IO::WriteData32(unsigned int, unsigned int)
                0xffffffff801052ad                APIC::IO::ReadData32(unsigned int)
                0xffffffff801052cf                APIC::IO::WriteData64(unsigned int, unsigned long)
                0xffffffff80105314                APIC::IO::ReadData64(unsigned int)
                0xffffffff8010534b                APIC::IO::Initialize()
                0xffffffff8010543a                APIC::IO::Redirect(unsigned char, unsigned char, unsigned int)
                0xffffffff80105470                APIC::IO::SetBase(unsigned long)
                0xffffffff8010548a                APIC::IO::MapLegacyIRQ(unsigned char)
                0xffffffff80105562                APIC::IO::EnableInterrupt(unsigned char)
 .text._ZN14SizedArrayListIP21MADTInterruptOverrideLi256EE6LengthEv
                0xffffffff80105606       0x19 ./build/Drivers/Generic/APIC/IO.o
                0xffffffff80105606                SizedArrayList<MADTInterruptOverride*, 256>::Length()
 *fill*         0xffffffff8010561f        0x1 
 .text._ZN14SizedArrayListIP21MADTInterruptOverrideLi256EEixEi
                0xffffffff80105620       0x35 ./build/Drivers/Generic/APIC/IO.o
                0xffffffff80105620                SizedArrayList<MADTInterruptOverride*, 256>::operator[](int)
 *fill*         0xffffffff80105655        0x1 
 .text          0xffffffff80105656      0x241 ./build/Drivers/Generic/APIC/APICTimer.o
                0xffffffff80105656                LocalAPICTimer::TimerEvent(InterruptData*, RegisterContext*)
                0xffffffff80105694                LocalAPICTimer::EstimateBusSpeed()
                0xffffffff80105756                LocalAPICTimer::LocalAPICTimer()
                0xffffffff80105756                LocalAPICTimer::LocalAPICTimer()
                0xffffffff8010580a                LocalAPICTimer::~LocalAPICTimer()
                0xffffffff8010580a                LocalAPICTimer::~LocalAPICTimer()
                0xffffffff80105836                LocalAPICTimer::Tick()
                0xffffffff8010585a                LocalAPICTimer::CurrentTime(TimeSpan)
                0xffffffff80105884                LocalAPICTimer::Sleep(long)
 *fill*         0xffffffff80105897        0x1 
 .text._ZN5TimerC2Ev
                0xffffffff80105898       0x1d ./build/Drivers/Generic/APIC/APICTimer.o
                0xffffffff80105898                Timer::Timer()
                0xffffffff80105898                Timer::Timer()
 .text          0xffffffff801058b5      0x1ec ./build/Drivers/Generic/APIC/Local.o
                0xffffffff801058b5                SpuriousInterruptHandler(InterruptData*, RegisterContext*)
                0xffffffff801058d9                APIC::Local::WriteBase(unsigned long)
                0xffffffff80105910                APIC::Local::ReadBase()
                0xffffffff8010594f                APIC::Local::WriteData(unsigned int, unsigned int)
                0xffffffff80105975                APIC::Local::ReadData(unsigned int)
                0xffffffff80105991                APIC::Local::SendIPI(unsigned char, unsigned int)
                0xffffffff801059e0                APIC::Local::SendIPI(unsigned char, unsigned int, unsigned int, unsigned char)
                0xffffffff80105a16                APIC::Local::Enable()
                0xffffffff80105a2c                APIC::Local::Initialize()
                0xffffffff80105a8b                APIC::Local::EndOfInterrupt()
 .text          0xffffffff80105aa1      0x26a ./build/Drivers/Generic/APIC/APICMain.o
                0xffffffff80105aa1                APIC::Initialize()
 *fill*         0xffffffff80105d0b        0x1 
 .text._ZN14SizedArrayListIhLi256EE3AddEh
                0xffffffff80105d0c       0x4e ./build/Drivers/Generic/APIC/APICMain.o
                0xffffffff80105d0c                SizedArrayList<unsigned char, 256>::Add(unsigned char)
 .text._ZN14SizedArrayListIP21MADTInterruptOverrideLi256EE3AddES1_
                0xffffffff80105d5a       0x4e ./build/Drivers/Generic/APIC/APICMain.o
                0xffffffff80105d5a                SizedArrayList<MADTInterruptOverride*, 256>::Add(MADTInterruptOverride*)
 .text          0xffffffff80105da8        0x0 ./build/Drivers/Generic/ACPI/MADTMain.o
 .text          0xffffffff80105da8      0x458 ./build/Drivers/Generic/ACPI/ACPIMain.o
                0xffffffff80105da8                ACPI::FindTableByName(char const*, int)
                0xffffffff80105fcc                ACPI::Initialize()
                0xffffffff8010613f                ACPI::GetRemapIRQ(unsigned int)
 .text._ZN13KeyValueTableImmEC2Ev
                0xffffffff80106200       0x1b ./build/Drivers/Generic/ACPI/ACPIMain.o
                0xffffffff80106200                KeyValueTable<unsigned long, unsigned long>::KeyValueTable()
                0xffffffff80106200                KeyValueTable<unsigned long, unsigned long>::KeyValueTable()
 *fill*         0xffffffff8010621b        0x1 
 .text._ZN14SizedArrayListIhLi256EEC2Ev
                0xffffffff8010621c       0x2d ./build/Drivers/Generic/ACPI/ACPIMain.o
                0xffffffff8010621c                SizedArrayList<unsigned char, 256>::SizedArrayList()
                0xffffffff8010621c                SizedArrayList<unsigned char, 256>::SizedArrayList()
 *fill*         0xffffffff80106249        0x1 
 .text._ZN14SizedArrayListIP21MADTInterruptOverrideLi256EEC2Ev
                0xffffffff8010624a       0x2d ./build/Drivers/Generic/ACPI/ACPIMain.o
                0xffffffff8010624a                SizedArrayList<MADTInterruptOverride*, 256>::SizedArrayList()
                0xffffffff8010624a                SizedArrayList<MADTInterruptOverride*, 256>::SizedArrayList()
 *fill*         0xffffffff80106277        0x1 
 .text._ZN10LinkedListIP12KeyValuePairImmEEC2Ev
                0xffffffff80106278       0x3c ./build/Drivers/Generic/ACPI/ACPIMain.o
                0xffffffff80106278                LinkedList<KeyValuePair<unsigned long, unsigned long>*>::LinkedList()
                0xffffffff80106278                LinkedList<KeyValuePair<unsigned long, unsigned long>*>::LinkedList()
 .text._ZN10LinkedListIP12KeyValuePairImmEED2Ev
                0xffffffff801062b4       0x1f ./build/Drivers/Generic/ACPI/ACPIMain.o
                0xffffffff801062b4                LinkedList<KeyValuePair<unsigned long, unsigned long>*>::~LinkedList()
                0xffffffff801062b4                LinkedList<KeyValuePair<unsigned long, unsigned long>*>::~LinkedList()
 *fill*         0xffffffff801062d3        0x1 
 .text._ZN13KeyValueTableImmED2Ev
                0xffffffff801062d4       0x1b ./build/Drivers/Generic/ACPI/ACPIMain.o
                0xffffffff801062d4                KeyValueTable<unsigned long, unsigned long>::~KeyValueTable()
                0xffffffff801062d4                KeyValueTable<unsigned long, unsigned long>::~KeyValueTable()
 *fill*         0xffffffff801062ef        0x1 
 .text          0xffffffff801062f0      0x257 ./build/Drivers/Generic/ACPI/ACPITimerImpl.o
                0xffffffff8010630e                ACPITimer::ACPITimer()
                0xffffffff8010630e                ACPITimer::ACPITimer()
                0xffffffff801063ee                ACPITimer::~ACPITimer()
                0xffffffff801063ee                ACPITimer::~ACPITimer()
                0xffffffff8010640c                ACPITimer::Tick()
                0xffffffff8010641c                ACPITimer::CurrentTime(TimeSpan)
                0xffffffff80106442                ACPITimer::Sleep(long)
 *fill*         0xffffffff80106547        0x1 
 .text          0xffffffff80106548      0x13c ./build/Drivers/Clock/HPET/HPETTimerImpl.o
                0xffffffff80106548                HPETTimer::HPETTimer()
                0xffffffff80106548                HPETTimer::HPETTimer()
                0xffffffff801065c4                HPETTimer::Tick()
                0xffffffff801065d4                HPETTimer::CurrentTime(TimeSpan)
                0xffffffff801065f8                HPETTimer::Sleep(long)
 .text._ZN9HPETTimer4ReadEm
                0xffffffff80106684       0x28 ./build/Drivers/Clock/HPET/HPETTimerImpl.o
                0xffffffff80106684                HPETTimer::Read(unsigned long)
 .text          0xffffffff801066ac      0x232 ./build/Drivers/Input/PS2LegacyController.o
                0xffffffff801066ea                Input::PS2LegacyController::PS2LegacyController()
                0xffffffff801066ea                Input::PS2LegacyController::PS2LegacyController()
                0xffffffff80106856                Input::PS2LegacyController::~PS2LegacyController()
                0xffffffff80106856                Input::PS2LegacyController::~PS2LegacyController()
                0xffffffff80106880                Input::PS2LegacyController::Enable()
                0xffffffff80106890                Input::PS2LegacyController::Disable()
                0xffffffff801068a0                Input::PS2LegacyController::SendCommand(unsigned char)
 .text._ZN5Input19PS2LegacyController8WaitDataEv
                0xffffffff801068de       0x4f ./build/Drivers/Input/PS2LegacyController.o
                0xffffffff801068de                Input::PS2LegacyController::WaitData()
 *fill*         0xffffffff8010692d        0x1 
 .text          0xffffffff8010692e      0x149 ./build/Drivers/Input/PS2LegacyKeyboardImpl.o
                0xffffffff8010694c                Input::KeyHandler(InterruptData*, RegisterContext*)
                0xffffffff801069d8                Input::PS2LegacyKeyboard::PS2LegacyKeyboard()
                0xffffffff801069d8                Input::PS2LegacyKeyboard::PS2LegacyKeyboard()
                0xffffffff80106a2e                Input::PS2LegacyKeyboard::~PS2LegacyKeyboard()
                0xffffffff80106a2e                Input::PS2LegacyKeyboard::~PS2LegacyKeyboard()
                0xffffffff80106a58                Input::PS2LegacyKeyboard::Enable()
                0xffffffff80106a68                Input::PS2LegacyKeyboard::Disable()
 .text          0xffffffff80106a77      0x7b5 ./build/String.o
                0xffffffff80106a77                memset
                0xffffffff80106ac3                memcpy
                0xffffffff80106b92                memcmp
                0xffffffff80106c24                strcpy
                0xffffffff80106c68                strncpy
                0xffffffff80106cd1                strlen
                0xffffffff80106d04                strcmp
                0xffffffff80106d66                strncmp
                0xffffffff80106e01                strchr
                0xffffffff80106e45                strnchr
                0xffffffff80106ebc                strrchr
                0xffffffff80106f0a                strspn
                0xffffffff80106f6f                strcspn
                0xffffffff80106fcc                strtok_r
                0xffffffff801070b4                strcat
                0xffffffff801070ec                strncat
                0xffffffff8010712d                toupper
                0xffffffff80107155                strupr
                0xffffffff801071b3                strnupr
 .text          0xffffffff8010722c      0x505 ./build/Memory/Memory.o
                0xffffffff80107426                Memory::Initialize()
 *fill*         0xffffffff80107731        0x1 
 .text._ZN14SizedArrayListIN6Memory7SectionELi256EEixEi
                0xffffffff80107732       0x34 ./build/Memory/Memory.o
                0xffffffff80107732                SizedArrayList<Memory::Section, 256>::operator[](int)
 .text._ZN14SizedArrayListI10ValueRangeLi64EEC2Ev
                0xffffffff80107766       0x2d ./build/Memory/Memory.o
                0xffffffff80107766                SizedArrayList<ValueRange, 64>::SizedArrayList()
                0xffffffff80107766                SizedArrayList<ValueRange, 64>::SizedArrayList()
 *fill*         0xffffffff80107793        0x1 
 .text._ZN14SizedArrayListIN6Memory7SectionELi256EEC2Ev
                0xffffffff80107794       0x2d ./build/Memory/Memory.o
                0xffffffff80107794                SizedArrayList<Memory::Section, 256>::SizedArrayList()
                0xffffffff80107794                SizedArrayList<Memory::Section, 256>::SizedArrayList()
 *fill*         0xffffffff801077c1        0x1 
 .text._ZN14SizedArrayListI10ValueRangeLi64EE3AddES0_
                0xffffffff801077c2       0x6b ./build/Memory/Memory.o
                0xffffffff801077c2                SizedArrayList<ValueRange, 64>::Add(ValueRange)
 *fill*         0xffffffff8010782d        0x1 
 .text          0xffffffff8010782e      0x74c ./build/Memory/Page.o
                0xffffffff80107a22                Memory::BuddyInit()
                0xffffffff80107a48                Memory::AllocatePhysMemory4KOrdered(unsigned char)
                0xffffffff80107b46                Memory::AllocatePhysMemory4K(unsigned long)
                0xffffffff80107b72                Memory::FreePhysMemory4K(unsigned long)
                0xffffffff80107b81                Memory::FreePhysMemory4K(Memory::PageFrame*)
                0xffffffff80107b90                Memory::ExpandPage(Memory::PageFrame*)
                0xffffffff80107ca1                Memory::CombinePage(Memory::PageFrame*)
                0xffffffff80107e13                Memory::CombinePage(Memory::PageFrame*, Memory::PageFrame*)
                0xffffffff80107e26                Memory::KernelAllocate4KPages(unsigned long)
                0xffffffff80107e54                Memory::KernelFree4KPages(unsigned long, unsigned long)
 .text._ZN7ObjectsL6IsNullEPv
                0xffffffff80107f7a       0x16 ./build/Memory/Page.o
 .text._ZN7ObjectsL6EqualsEPvS0_
                0xffffffff80107f90       0x1d ./build/Memory/Page.o
 .text._ZN6Memory6pageOfEm
                0xffffffff80107fad       0x62 ./build/Memory/Page.o
                0xffffffff80107fad                Memory::pageOf(unsigned long)
 *fill*         0xffffffff8010800f        0x1 
 .text._ZN6Memory9BuddyZoneC2Ev
                0xffffffff80108010       0x3d ./build/Memory/Page.o
                0xffffffff80108010                Memory::BuddyZone::BuddyZone()
                0xffffffff80108010                Memory::BuddyZone::BuddyZone()
 *fill*         0xffffffff8010804d        0x1 
 .text._ZN10LinkedListIN6Memory9PageFrameEEC2Ev
                0xffffffff8010804e       0x3c ./build/Memory/Page.o
                0xffffffff8010804e                LinkedList<Memory::PageFrame>::LinkedList()
                0xffffffff8010804e                LinkedList<Memory::PageFrame>::LinkedList()
 .text._ZN10LinkedListIN6Memory9PageFrameEED2Ev
                0xffffffff8010808a       0x1f ./build/Memory/Page.o
                0xffffffff8010808a                LinkedList<Memory::PageFrame>::~LinkedList()
                0xffffffff8010808a                LinkedList<Memory::PageFrame>::~LinkedList()
 *fill*         0xffffffff801080a9        0x1 
 .text._ZN10LinkedListIN6Memory9PageFrameEE3AddEP8ListNodeIS1_E
                0xffffffff801080aa       0x90 ./build/Memory/Page.o
                0xffffffff801080aa                LinkedList<Memory::PageFrame>::Add(ListNode<Memory::PageFrame>*)
 .text._ZN10LinkedListIN6Memory9PageFrameEE5CountEv
                0xffffffff8010813a       0x15 ./build/Memory/Page.o
                0xffffffff8010813a                LinkedList<Memory::PageFrame>::Count()
 *fill*         0xffffffff8010814f        0x1 
 .text._ZN10LinkedListIN6Memory9PageFrameEE7ExtractEv
                0xffffffff80108150       0x98 ./build/Memory/Page.o
                0xffffffff80108150                LinkedList<Memory::PageFrame>::Extract()
 .text._ZN10LinkedListIN6Memory9PageFrameEE6RemoveEP8ListNodeIS1_E
                0xffffffff801081e8       0xfa ./build/Memory/Page.o
                0xffffffff801081e8                LinkedList<Memory::PageFrame>::Remove(ListNode<Memory::PageFrame>*)
 .text._ZN10LinkedListIN6Memory9PageFrameEE5FirstEv
                0xffffffff801082e2       0x15 ./build/Memory/Page.o
                0xffffffff801082e2                LinkedList<Memory::PageFrame>::First()
 *fill*         0xffffffff801082f7        0x1 
 .text._ZN10LinkedListIN6Memory9PageFrameEE8ContainsEP8ListNodeIS1_E
                0xffffffff801082f8       0x4d ./build/Memory/Page.o
                0xffffffff801082f8                LinkedList<Memory::PageFrame>::Contains(ListNode<Memory::PageFrame>*)
 *fill*         0xffffffff80108345        0x1 
 .text._ZN6Memory9BuddyZoneD2Ev
                0xffffffff80108346       0x3f ./build/Memory/Page.o
                0xffffffff80108346                Memory::BuddyZone::~BuddyZone()
                0xffffffff80108346                Memory::BuddyZone::~BuddyZone()
 *fill*         0xffffffff80108385        0x1 
 .text          0xffffffff80108386      0x437 ./build/Memory/SlabAllocatorImpl.o
                0xffffffff80108464                Memory::SlabAllocator::SlabAllocator()
                0xffffffff80108464                Memory::SlabAllocator::SlabAllocator()
                0xffffffff801084d2                Memory::SlabAllocator::~SlabAllocator()
                0xffffffff801084d2                Memory::SlabAllocator::~SlabAllocator()
                0xffffffff801084e2                Memory::SlabAllocator::Request4KPage(Memory::SlabCache*, unsigned long*)
                0xffffffff801085fc                Memory::SlabAllocator::Allocate(unsigned long)
                0xffffffff801087aa                Memory::SlabAllocator::Free(unsigned long)
 *fill*         0xffffffff801087bd        0x1 
 .text          0xffffffff801087be      0x1dd ./build/Process/ProcessImpl.o
                0xffffffff801087d4                Task::Process::Process()
                0xffffffff801087d4                Task::Process::Process()
                0xffffffff801087f4                Task::Process::Process(char const*, Fs::File*, unsigned int, Task::Activity*, Task::TaskType)
                0xffffffff801087f4                Task::Process::Process(char const*, Fs::File*, unsigned int, Task::Activity*, Task::TaskType)
                0xffffffff80108928                Task::Process::~Process()
                0xffffffff80108928                Task::Process::~Process()
                0xffffffff80108948                Task::Process::Start()
                0xffffffff8010896a                Task::Process::Suspend()
                0xffffffff8010898c                Task::Process::Stop()
 *fill*         0xffffffff8010899b        0x1 
 .text._ZN10LinkedListIN4Task6ThreadEEC2Ev
                0xffffffff8010899c       0x3c ./build/Process/ProcessImpl.o
                0xffffffff8010899c                LinkedList<Task::Thread>::LinkedList()
                0xffffffff8010899c                LinkedList<Task::Thread>::LinkedList()
 .text._ZN10LinkedListIN4Task6ThreadEED2Ev
                0xffffffff801089d8       0x1f ./build/Process/ProcessImpl.o
                0xffffffff801089d8                LinkedList<Task::Thread>::~LinkedList()
                0xffffffff801089d8                LinkedList<Task::Thread>::~LinkedList()
 *fill*         0xffffffff801089f7        0x1 
 .text._ZN10LinkedListIN4Task6ThreadEE3AddEP8ListNodeIS1_E
                0xffffffff801089f8       0x90 ./build/Process/ProcessImpl.o
                0xffffffff801089f8                LinkedList<Task::Thread>::Add(ListNode<Task::Thread>*)
 .text          0xffffffff80108a88       0x46 ./build/Process/ActivityManagement.o
 .text._ZN4Task8ActivityD2Ev
                0xffffffff80108ace       0x1f ./build/Process/ActivityManagement.o
                0xffffffff80108ace                Task::Activity::~Activity()
                0xffffffff80108ace                Task::Activity::~Activity()
 *fill*         0xffffffff80108aed        0x1 
 .text._ZN10LinkedListIPN4Task7ProcessEED2Ev
                0xffffffff80108aee       0x1f ./build/Process/ActivityManagement.o
                0xffffffff80108aee                LinkedList<Task::Process*>::~LinkedList()
                0xffffffff80108aee                LinkedList<Task::Process*>::~LinkedList()
 *fill*         0xffffffff80108b0d        0x1 
 .text          0xffffffff80108b0e      0x31f ./build/Process/SchedulerImpl.o
                0xffffffff80108b24                Task::Scheduler::Scheduler()
                0xffffffff80108b24                Task::Scheduler::Scheduler()
                0xffffffff80108b78                Task::Scheduler::~Scheduler()
                0xffffffff80108b78                Task::Scheduler::~Scheduler()
                0xffffffff80108b88                Task::Scheduler::NextPID()
                0xffffffff80108bc6                Task::Scheduler::Register(Task::Process*)
                0xffffffff80108c66                Task::Scheduler::Schedule()
                0xffffffff80108c7e                Task::Scheduler::CreateProcess(char const*, Task::Activity*)
                0xffffffff80108cb4                Task::Scheduler::CreateIdleProcess()
                0xffffffff80108ce6                Task::Scheduler::CreateELFProcess(Fs::File*)
                0xffffffff80108d1c                Task::Scheduler::CreateProcessEx(char const*, Task::Activity*, Task::TaskType, Fs::File*)
                0xffffffff80108d94                Task::Scheduler::CreateThread(Task::Process*)
 *fill*         0xffffffff80108e2d        0x1 
 .text._ZN4Task6ThreadC2EPNS_7ProcessE
                0xffffffff80108e2e       0x60 ./build/Process/SchedulerImpl.o
                0xffffffff80108e2e                Task::Thread::Thread(Task::Process*)
                0xffffffff80108e2e                Task::Thread::Thread(Task::Process*)
 .text._ZN4Task9Scheduler14GetProcessByIdEj
                0xffffffff80108e8e       0x29 ./build/Process/SchedulerImpl.o
                0xffffffff80108e8e                Task::Scheduler::GetProcessById(unsigned int)
 *fill*         0xffffffff80108eb7        0x1 
 .text._ZN14SizedArrayListIPN4Task7ProcessELi65536EEixEi
                0xffffffff80108eb8       0x35 ./build/Process/SchedulerImpl.o
                0xffffffff80108eb8                SizedArrayList<Task::Process*, 65536>::operator[](int)
 *fill*         0xffffffff80108eed        0x1 
 .text._ZN14SizedArrayListIPN4Task7ProcessELi65536EEC2Ev
                0xffffffff80108eee       0x2d ./build/Process/SchedulerImpl.o
                0xffffffff80108eee                SizedArrayList<Task::Process*, 65536>::SizedArrayList()
                0xffffffff80108eee                SizedArrayList<Task::Process*, 65536>::SizedArrayList()
 *fill*         0xffffffff80108f1b        0x1 
 .text._ZN8ListNodeIN4Task6ThreadEEC2ES1_
                0xffffffff80108f1c       0x29 ./build/Process/SchedulerImpl.o
                0xffffffff80108f1c                ListNode<Task::Thread>::ListNode(Task::Thread)
                0xffffffff80108f1c                ListNode<Task::Thread>::ListNode(Task::Thread)
 .text          0xffffffff80108f45       0xa5 ./build/Process/Scheduler.o
                0xffffffff80108f5b                Task::GetCurrentProcess()
 .text          0xffffffff80108fea      0x169 ./build/Process/ActivityImpl.o
                0xffffffff8010901e                Task::Activity::Activity(char const*, Task::Process*)
                0xffffffff8010901e                Task::Activity::Activity(char const*, Task::Process*)
                0xffffffff80109064                Task::Activity::Activity(Task::Process*)
                0xffffffff80109064                Task::Activity::Activity(Task::Process*)
                0xffffffff80109092                Task::Activity::Add(Task::Process*)
                0xffffffff80109100                Task::Activity::CreateIfNull(Task::Process*)
 *fill*         0xffffffff80109153        0x1 
 .text._ZN10LinkedListIPN4Task7ProcessEEC2Ev
                0xffffffff80109154       0x3c ./build/Process/ActivityImpl.o
                0xffffffff80109154                LinkedList<Task::Process*>::LinkedList()
                0xffffffff80109154                LinkedList<Task::Process*>::LinkedList()
 .text._ZN10LinkedListIPN4Task7ProcessEE3AddES2_
                0xffffffff80109190       0x4e ./build/Process/ActivityImpl.o
                0xffffffff80109190                LinkedList<Task::Process*>::Add(Task::Process*)
 .text._ZN8ListNodeIPN4Task7ProcessEEC2ES2_
                0xffffffff801091de       0x1f ./build/Process/ActivityImpl.o
                0xffffffff801091de                ListNode<Task::Process*>::ListNode(Task::Process*)
                0xffffffff801091de                ListNode<Task::Process*>::ListNode(Task::Process*)
 *fill*         0xffffffff801091fd        0x1 
 .text._ZN10LinkedListIPN4Task7ProcessEE3AddEP8ListNodeIS2_E
                0xffffffff801091fe       0x90 ./build/Process/ActivityImpl.o
                0xffffffff801091fe                LinkedList<Task::Process*>::Add(ListNode<Task::Process*>*)
 .text          0xffffffff8010928e      0x497 ./build/Arch/x86_64/SMP.o
                0xffffffff8010928e                SMP::TrampolineEntry(unsigned short)
                0xffffffff8010938a                SMP::InitializeProcessor(unsigned short)
                0xffffffff8010958f                SMP::Initialize()
 *fill*         0xffffffff80109725        0x1 
 .text._ZN14SizedArrayListIhLi256EE6LengthEv
                0xffffffff80109726       0x19 ./build/Arch/x86_64/SMP.o
                0xffffffff80109726                SizedArrayList<unsigned char, 256>::Length()
 .text          0xffffffff8010973f      0x3b5 ./build/Arch/x86_64/BootX64.o
                0xffffffff8010973f                Boot::multiboot2(BootInfo*, multiboot2_info_header_t*)
                0xffffffff80109752                Boot::stivale2(BootInfo*, stivale2_struct*)
                0xffffffff801099e6                Boot::Start()
                0xffffffff80109ac3                kload_stivale2
 .text._Z17DisableInterruptsv
                0xffffffff80109af4        0x8 ./build/Arch/x86_64/BootX64.o
                0xffffffff80109af4                DisableInterrupts()
 .text._Z16EnableInterruptsv
                0xffffffff80109afc        0x8 ./build/Arch/x86_64/BootX64.o
                0xffffffff80109afc                EnableInterrupts()
 .text          0xffffffff80109b04       0x8a ./build/Arch/x86_64/PIT.o
                0xffffffff80109b23                PIT::TimerTickHandler(void*, RegisterContext*)
                0xffffffff80109b36                PIT::Initialize(unsigned int)
 .text          0xffffffff80109b8e      0x15b ./build/Arch/x86_64/PIC.o
                0xffffffff80109bc3                PIC::Initialize()
                0xffffffff80109c92                PIC::Disable()
                0xffffffff80109cb7                RestoreInterrupts(int)
 .text          0xffffffff80109ce9      0x126 ./build/Arch/x86_64/IDT.o
                0xffffffff80109ce9                IDT::SetGate(unsigned char, unsigned long, unsigned short, unsigned char, unsigned char)
                0xffffffff80109db6                IDT::Initialize()
 .text          0xffffffff80109e0f       0xed ./build/Arch/x86_64/TaskStateSegment.o
                0xffffffff80109e0f                TSS::Initialize(TaskStateSegment*, void*)
 .text._ZN11GDTTssEntryC2ERK16TaskStateSegment
                0xffffffff80109efc       0x78 ./build/Arch/x86_64/TaskStateSegment.o
                0xffffffff80109efc                GDTTssEntry::GDTTssEntry(TaskStateSegment const&)
                0xffffffff80109efc                GDTTssEntry::GDTTssEntry(TaskStateSegment const&)
 .text          0xffffffff80109f74      0x1c6 ./build/Arch/x86_64/CPU.o
                0xffffffff80109fa3                CurrentCPU()
                0xffffffff80109fd3                CPUID()
                0xffffffff8010a0c0                SetCPULocal(CPU*)
                0xffffffff8010a0fc                GetCPULocal()
 .text._ZN18InterruptsRetainerC2Ev
                0xffffffff8010a13a       0x10 ./build/Arch/x86_64/CPU.o
                0xffffffff8010a13a                InterruptsRetainer::InterruptsRetainer()
                0xffffffff8010a13a                InterruptsRetainer::InterruptsRetainer()
 .text._ZN18InterruptsRetainerD2Ev
                0xffffffff8010a14a       0x10 ./build/Arch/x86_64/CPU.o
                0xffffffff8010a14a                InterruptsRetainer::~InterruptsRetainer()
                0xffffffff8010a14a                InterruptsRetainer::~InterruptsRetainer()
 .text._ZN9CPUIDInfoC2Ev
                0xffffffff8010a15a       0x17 ./build/Arch/x86_64/CPU.o
                0xffffffff8010a15a                CPUIDInfo::CPUIDInfo()
                0xffffffff8010a15a                CPUIDInfo::CPUIDInfo()
 .text          0xffffffff8010a171       0x61 ./build/Arch/x86_64/GDT.o
                0xffffffff8010a171                GDT::Initialize()
 .text._ZN11GDTTssEntryC2Ev
                0xffffffff8010a1d2        0xf ./build/Arch/x86_64/GDT.o
                0xffffffff8010a1d2                GDTTssEntry::GDTTssEntry()
                0xffffffff8010a1d2                GDTTssEntry::GDTTssEntry()
 .text          0xffffffff8010a1e1       0x77 ./build/Arch/x86_64/Arch.o
                0xffffffff8010a21e                System::Reboot()
                0xffffffff8010a249                System::Shutdown()
                0xffffffff8010a250                Halt()
 .text          0xffffffff8010a258       0xdc ./build/Arch/x86_64/SchedulerArchImpl.o
                0xffffffff8010a288                Task::Scheduler::SwitchThread(Task::Thread*)
 .text          0xffffffff8010a334      0xa9e ./build/Arch/x86_64/MMU.o
                0xffffffff8010a334                Paging::PageFaultHandler(InterruptData*, RegisterContext*)
                0xffffffff8010a347                Paging::InitializeVirtualMemory()
                0xffffffff8010a399                Paging::CreatePagemap()
                0xffffffff8010a39f                Paging::DestroyPagemap()
                0xffffffff8010a3a6                Paging::CreatePageTable(unsigned long)
                0xffffffff8010a3b5                Paging::MapVirtualMemory4K(Paging::VirtualPages*, unsigned long, unsigned long, unsigned long, unsigned long)
                0xffffffff8010a3d4                Paging::Allocate4KPages(Paging::VirtualPages*, unsigned long)
                0xffffffff8010a3eb                Paging::Free4KPages(Paging::VirtualPages*, unsigned long, unsigned long)
                0xffffffff8010a402                Paging::KernelMapVirtualMemory4K(unsigned long, unsigned long, unsigned long)
                0xffffffff8010a432                Paging::KernelMapVirtualMemory4K(unsigned long, unsigned long, unsigned long, unsigned long)
                0xffffffff8010a640                Paging::KernelAllocate4KPages(unsigned long)
                0xffffffff8010a967                Paging::KernelFree4KPages(void*, unsigned long)
                0xffffffff8010a97a                Paging::ConvertVirtToPhys(Paging::VirtualPages*, unsigned long)
                0xffffffff8010aa7a                Paging::VirtualPages::CheckBitmap(unsigned long, unsigned long)
                0xffffffff8010ab3c                Paging::VirtualPages::CheckPageTable(unsigned long, unsigned long)
                0xffffffff8010ad5a                Memory::GetIOMapping(unsigned long)
 .text._ZN12AddressSpaceC2Ev
                0xffffffff8010add2       0x1d ./build/Arch/x86_64/MMU.o
                0xffffffff8010add2                AddressSpace::AddressSpace()
                0xffffffff8010add2                AddressSpace::AddressSpace()
 *fill*         0xffffffff8010adef        0x1 
 .text._ZN18KernelAddressSpaceC2Ev
                0xffffffff8010adf0       0x29 ./build/Arch/x86_64/MMU.o
                0xffffffff8010adf0                KernelAddressSpace::KernelAddressSpace()
                0xffffffff8010adf0                KernelAddressSpace::KernelAddressSpace()
 *fill*         0xffffffff8010ae19        0x1 
 .text._ZN6Paging12VirtualPagesC2Ev
                0xffffffff8010ae1a        0xf ./build/Arch/x86_64/MMU.o
                0xffffffff8010ae1a                Paging::VirtualPages::VirtualPages()
                0xffffffff8010ae1a                Paging::VirtualPages::VirtualPages()
 *fill*         0xffffffff8010ae29        0x1 
 .text._ZN6Paging12VirtualPagesD2Ev
                0xffffffff8010ae2a        0xf ./build/Arch/x86_64/MMU.o
                0xffffffff8010ae2a                Paging::VirtualPages::~VirtualPages()
                0xffffffff8010ae2a                Paging::VirtualPages::~VirtualPages()
 .text._ZN6Paging12SetPageFlagsEPmm
                0xffffffff8010ae39       0x28 ./build/Arch/x86_64/MMU.o
                0xffffffff8010ae39                Paging::SetPageFlags(unsigned long*, unsigned long)
 .text._ZN6Paging12SetPageFrameEPmmm
                0xffffffff8010ae61       0x4a ./build/Arch/x86_64/MMU.o
                0xffffffff8010ae61                Paging::SetPageFrame(unsigned long*, unsigned long, unsigned long)
 .text._ZN6Paging12GetIOMappingEm
                0xffffffff8010aeab       0x42 ./build/Arch/x86_64/MMU.o
                0xffffffff8010aeab                Paging::GetIOMapping(unsigned long)
 *fill*         0xffffffff8010aeed        0x1 
 .text._ZN12AddressSpaceaSERKS_
                0xffffffff8010aeee       0x56 ./build/Arch/x86_64/MMU.o
                0xffffffff8010aeee                AddressSpace::operator=(AddressSpace const&)
 .text._ZN18KernelAddressSpaceaSERKS_
                0xffffffff8010af44       0x29 ./build/Arch/x86_64/MMU.o
                0xffffffff8010af44                KernelAddressSpace::operator=(KernelAddressSpace const&)
 *fill*         0xffffffff8010af6d        0x1 
 .text          0xffffffff8010af6e      0xd2d ./build/Arch/x86_64/AddressSpace.o
                0xffffffff8010afc6                AddressSpace::AddressSpace(void*)
                0xffffffff8010afc6                AddressSpace::AddressSpace(void*)
                0xffffffff8010b00c                AddressSpace::~AddressSpace()
                0xffffffff8010b00c                AddressSpace::~AddressSpace()
                0xffffffff8010b02a                AddressSpace::Allocate4KPages(unsigned long)
                0xffffffff8010b486                AddressSpace::Free4KPages(unsigned long, unsigned long)
                0xffffffff8010b61c                AddressSpace::IsPagePresent(unsigned long)
                0xffffffff8010b634                AddressSpace::ConvertVirtToPhys(unsigned long)
                0xffffffff8010b64c                KernelAddressSpace::KernelAddressSpace(void*)
                0xffffffff8010b64c                KernelAddressSpace::KernelAddressSpace(void*)
                0xffffffff8010b8f8                KernelAddressSpace::~KernelAddressSpace()
                0xffffffff8010b8f8                KernelAddressSpace::~KernelAddressSpace()
                0xffffffff8010b922                KernelAddressSpace::Allocate4KPages(unsigned long)
                0xffffffff8010bae6                KernelAddressSpace::Free4KPages(unsigned long, unsigned long)
                0xffffffff8010bafe                KernelAddressSpace::IsPagePresent(unsigned long)
                0xffffffff8010bba6                KernelAddressSpace::ConvertVirtToPhys(unsigned long)
 .text          0xffffffff8010bc9b      0x1df ./build/Arch/x86_64/Interrupts.o
                0xffffffff8010bc9b                UnhandlededException(InterruptData*, RegisterContext*)
                0xffffffff8010bccb                DispatchInterrupts
                0xffffffff8010be1d                RegisterIRQ(unsigned char, void (*)(InterruptData*, RegisterContext*))
 .text          0xffffffff8010be7a      0x16e ./build/Arch/x86_64/SMBIOS.o
                0xffffffff8010beca                SMBIOS::Initialize()
 .text          0xffffffff8010bfe8      0x21a ./build/Input/KeyCode.o
                0xffffffff8010bfe8                Input::ApplyModifiers(Input::Key, unsigned char)
 .text          0xffffffff8010c202      0x6fe ./build/Input/ConsoleImpl.o
                0xffffffff8010c202                ConsoleKeyEventHandler(Input::Key, bool)
                0xffffffff8010c236                Console::Console()
                0xffffffff8010c236                Console::Console()
                0xffffffff8010c2a0                Console::~Console()
                0xffffffff8010c2a0                Console::~Console()
                0xffffffff8010c2b0                Console::Render()
                0xffffffff8010c2c0                Console::Refresh()
                0xffffffff8010c33e                Console::Newline()
                0xffffffff8010c3ec                Console::RenderModifiers()
                0xffffffff8010c636                Console::AcceptKey(Input::Key, bool)
                0xffffffff8010c820                Console::AddChar(char)
 .text          0xffffffff8010c900       0x1f ./build/Fs/DiskDeviceImpl.o
                0xffffffff8010c900                DiskDevice::Enable()
                0xffffffff8010c910                DiskDevice::Disable()
 *fill*         0xffffffff8010c91f        0x1 
 .text          0xffffffff8010c920       0x86 ./build/Arch/x86_64/SMPTrampoline.o
                0xffffffff8010c920                SMPTrampolineStart
                0xffffffff8010c9a6                SMPTrampolineEnd
 *fill*         0xffffffff8010c9a6        0xa 
 .text          0xffffffff8010c9b0       0x5b ./build/Arch/x86_64/Wrapper.o
                0xffffffff8010c9b0                asmw_flush_gdt
                0xffffffff8010c9db                asmw_flush_idt
                0xffffffff8010c9df                asmw_load_paging
                0xffffffff8010c9e3                asmw_enable_sse
                0xffffffff8010c9f4                asmw_enable_avx
                0xffffffff8010ca07                asmw_get_pagemap
 *fill*         0xffffffff8010ca0b        0x5 
 .text          0xffffffff8010ca10       0x3c ./build/Arch/x86_64/KernelStack.o
                0xffffffff8010ca10                load_tss
 *fill*         0xffffffff8010ca4c        0x4 
 .text          0xffffffff8010ca50     0x12a4 ./build/Arch/x86_64/IRQ.o
                0xffffffff8010cb7f                ipi48
                0xffffffff8010cb88                ipi49
                0xffffffff8010cb91                ipi50
                0xffffffff8010cb9a                ipi51
                0xffffffff8010cba3                ipi52
                0xffffffff8010cbac                ipi53
                0xffffffff8010cbb5                ipi54
                0xffffffff8010cbbe                ipi55
                0xffffffff8010cbc7                ipi56
                0xffffffff8010cbd0                ipi57
                0xffffffff8010cbd9                ipi58
                0xffffffff8010cbe2                ipi59
                0xffffffff8010cbeb                ipi60
                0xffffffff8010cbf4                ipi61
                0xffffffff8010cbfd                ipi62
                0xffffffff8010cc06                ipi63
                0xffffffff8010cc0f                ipi64
                0xffffffff8010cc18                ipi65
                0xffffffff8010cc21                ipi66
                0xffffffff8010cc2a                ipi67
                0xffffffff8010cc33                ipi68
                0xffffffff8010cc3c                ipi69
                0xffffffff8010cc45                ipi70
                0xffffffff8010cc4e                ipi71
                0xffffffff8010cc57                ipi72
                0xffffffff8010cc60                ipi73
                0xffffffff8010cc69                ipi74
                0xffffffff8010cc72                ipi75
                0xffffffff8010cc7b                ipi76
                0xffffffff8010cc84                ipi77
                0xffffffff8010cc8d                ipi78
                0xffffffff8010cc96                ipi79
                0xffffffff8010cc9f                ipi80
                0xffffffff8010cca8                ipi81
                0xffffffff8010ccb1                ipi82
                0xffffffff8010ccba                ipi83
                0xffffffff8010ccc3                ipi84
                0xffffffff8010cccc                ipi85
                0xffffffff8010ccd5                ipi86
                0xffffffff8010ccde                ipi87
                0xffffffff8010cce7                ipi88
                0xffffffff8010ccf0                ipi89
                0xffffffff8010ccf9                ipi90
                0xffffffff8010cd02                ipi91
                0xffffffff8010cd0b                ipi92
                0xffffffff8010cd14                ipi93
                0xffffffff8010cd1d                ipi94
                0xffffffff8010cd26                ipi95
                0xffffffff8010cd2f                ipi96
                0xffffffff8010cd38                ipi97
                0xffffffff8010cd41                ipi98
                0xffffffff8010cd4a                ipi99
                0xffffffff8010cd53                ipi100
                0xffffffff8010cd5c                ipi101
                0xffffffff8010cd65                ipi102
                0xffffffff8010cd6e                ipi103
                0xffffffff8010cd77                ipi104
                0xffffffff8010cd80                ipi105
                0xffffffff8010cd89                ipi106
                0xffffffff8010cd92                ipi107
                0xffffffff8010cd9b                ipi108
                0xffffffff8010cda4                ipi109
                0xffffffff8010cdad                ipi110
                0xffffffff8010cdb6                ipi111
                0xffffffff8010cdbf                ipi112
                0xffffffff8010cdc8                ipi113
                0xffffffff8010cdd1                ipi114
                0xffffffff8010cdda                ipi115
                0xffffffff8010cde3                ipi116
                0xffffffff8010cdec                ipi117
                0xffffffff8010cdf5                ipi118
                0xffffffff8010cdfe                ipi119
                0xffffffff8010ce07                ipi120
                0xffffffff8010ce10                ipi121
                0xffffffff8010ce19                ipi122
                0xffffffff8010ce22                ipi123
                0xffffffff8010ce2b                ipi124
                0xffffffff8010ce34                ipi125
                0xffffffff8010ce3d                ipi126
                0xffffffff8010ce46                ipi127
                0xffffffff8010ce4f                ipi128
                0xffffffff8010ce5b                ipi129
                0xffffffff8010ce67                ipi130
                0xffffffff8010ce73                ipi131
                0xffffffff8010ce7f                ipi132
                0xffffffff8010ce8b                ipi133
                0xffffffff8010ce97                ipi134
                0xffffffff8010cea3                ipi135
                0xffffffff8010ceaf                ipi136
                0xffffffff8010cebb                ipi137
                0xffffffff8010cec7                ipi138
                0xffffffff8010ced3                ipi139
                0xffffffff8010cedf                ipi140
                0xffffffff8010ceeb                ipi141
                0xffffffff8010cef7                ipi142
                0xffffffff8010cf03                ipi143
                0xffffffff8010cf0f                ipi144
                0xffffffff8010cf1b                ipi145
                0xffffffff8010cf27                ipi146
                0xffffffff8010cf33                ipi147
                0xffffffff8010cf3f                ipi148
                0xffffffff8010cf4b                ipi149
                0xffffffff8010cf57                ipi150
                0xffffffff8010cf63                ipi151
                0xffffffff8010cf6f                ipi152
                0xffffffff8010cf7b                ipi153
                0xffffffff8010cf87                ipi154
                0xffffffff8010cf93                ipi155
                0xffffffff8010cf9f                ipi156
                0xffffffff8010cfab                ipi157
                0xffffffff8010cfb7                ipi158
                0xffffffff8010cfc3                ipi159
                0xffffffff8010cfcf                ipi160
                0xffffffff8010cfdb                ipi161
                0xffffffff8010cfe7                ipi162
                0xffffffff8010cff3                ipi163
                0xffffffff8010cfff                ipi164
                0xffffffff8010d00b                ipi165
                0xffffffff8010d017                ipi166
                0xffffffff8010d023                ipi167
                0xffffffff8010d02f                ipi168
                0xffffffff8010d03b                ipi169
                0xffffffff8010d047                ipi170
                0xffffffff8010d053                ipi171
                0xffffffff8010d05f                ipi172
                0xffffffff8010d06b                ipi173
                0xffffffff8010d077                ipi174
                0xffffffff8010d083                ipi175
                0xffffffff8010d08f                ipi176
                0xffffffff8010d09b                ipi177
                0xffffffff8010d0a7                ipi178
                0xffffffff8010d0b3                ipi179
                0xffffffff8010d0bf                ipi180
                0xffffffff8010d0cb                ipi181
                0xffffffff8010d0d7                ipi182
                0xffffffff8010d0e3                ipi183
                0xffffffff8010d0ef                ipi184
                0xffffffff8010d0fb                ipi185
                0xffffffff8010d107                ipi186
                0xffffffff8010d113                ipi187
                0xffffffff8010d11f                ipi188
                0xffffffff8010d12b                ipi189
                0xffffffff8010d137                ipi190
                0xffffffff8010d143                ipi191
                0xffffffff8010d14f                ipi192
                0xffffffff8010d15b                ipi193
                0xffffffff8010d167                ipi194
                0xffffffff8010d173                ipi195
                0xffffffff8010d17f                ipi196
                0xffffffff8010d18b                ipi197
                0xffffffff8010d197                ipi198
                0xffffffff8010d1a3                ipi199
                0xffffffff8010d1af                ipi200
                0xffffffff8010d1bb                ipi201
                0xffffffff8010d1c7                ipi202
                0xffffffff8010d1d3                ipi203
                0xffffffff8010d1df                ipi204
                0xffffffff8010d1eb                ipi205
                0xffffffff8010d1f7                ipi206
                0xffffffff8010d203                ipi207
                0xffffffff8010d20f                ipi208
                0xffffffff8010d21b                ipi209
                0xffffffff8010d227                ipi210
                0xffffffff8010d233                ipi211
                0xffffffff8010d23f                ipi212
                0xffffffff8010d24b                ipi213
                0xffffffff8010d257                ipi214
                0xffffffff8010d263                ipi215
                0xffffffff8010d26f                ipi216
                0xffffffff8010d27b                ipi217
                0xffffffff8010d287                ipi218
                0xffffffff8010d293                ipi219
                0xffffffff8010d29f                ipi220
                0xffffffff8010d2ab                ipi221
                0xffffffff8010d2b7                ipi222
                0xffffffff8010d2c3                ipi223
                0xffffffff8010d2cf                ipi224
                0xffffffff8010d2db                ipi225
                0xffffffff8010d2e7                ipi226
                0xffffffff8010d2f3                ipi227
                0xffffffff8010d2ff                ipi228
                0xffffffff8010d30b                ipi229
                0xffffffff8010d317                ipi230
                0xffffffff8010d323                ipi231
                0xffffffff8010d32f                ipi232
                0xffffffff8010d33b                ipi233
                0xffffffff8010d347                ipi234
                0xffffffff8010d353                ipi235
                0xffffffff8010d35f                ipi236
                0xffffffff8010d36b                ipi237
                0xffffffff8010d377                ipi238
                0xffffffff8010d383                ipi239
                0xffffffff8010d38f                ipi240
                0xffffffff8010d39b                ipi241
                0xffffffff8010d3a7                ipi242
                0xffffffff8010d3b3                ipi243
                0xffffffff8010d3bf                ipi244
                0xffffffff8010d3cb                ipi245
                0xffffffff8010d3d7                ipi246
                0xffffffff8010d3e3                ipi247
                0xffffffff8010d3ef                ipi248
                0xffffffff8010d3fb                ipi249
                0xffffffff8010d407                ipi250
                0xffffffff8010d413                ipi251
                0xffffffff8010d41f                ipi252
                0xffffffff8010d42b                ipi253
                0xffffffff8010d437                ipi254
                0xffffffff8010d443                ipi255
                0xffffffff8010d44f                intrid32
                0xffffffff8010d458                intrid33
                0xffffffff8010d461                intrid34
                0xffffffff8010d46a                intrid35
                0xffffffff8010d473                intrid36
                0xffffffff8010d47c                intrid37
                0xffffffff8010d485                intrid38
                0xffffffff8010d48e                intrid39
                0xffffffff8010d497                intrid40
                0xffffffff8010d4a0                intrid41
                0xffffffff8010d4a9                intrid42
                0xffffffff8010d4b2                intrid43
                0xffffffff8010d4bb                intrid44
                0xffffffff8010d4c4                intrid45
                0xffffffff8010d4cd                intrid46
                0xffffffff8010d4d6                intrid47
                0xffffffff8010d4f4                isr_tables

.iplt           0xffffffff8010dcf4        0x0 load address 0x000000000010dcf4
 .iplt          0xffffffff8010dcf4        0x0 ./build/Video/VideoControllerImpl.o

.rodata         0xffffffff8010e000     0x10e0 load address 0x000000000010e000
 *(.rodata*)
 .rodata._ZTVN5Video17TextModePresenterE
                0xffffffff8010e000       0x28 ./build/Video/TextModePresenterImpl.o
                0xffffffff8010e000                vtable for Video::TextModePresenter
 .rodata._ZTVN5Video14VideoPresenterE
                0xffffffff8010e028       0x28 ./build/Video/VideoPresenterImpl.o
                0xffffffff8010e028                vtable for Video::VideoPresenter
 .rodata        0xffffffff8010e050       0x36 ./build/Runtime.o
 *fill*         0xffffffff8010e086        0x2 
 .rodata        0xffffffff8010e088      0x1c0 ./build/libkern/printf.o
 .rodata._ZTV6Device
                0xffffffff8010e248       0x20 ./build/Device/DeviceImpl.o
                0xffffffff8010e248                vtable for Device
 .rodata        0xffffffff8010e268       0x32 ./build/Drivers/Storage/AHCI/AHCIControllerDeviceImpl.o
 *fill*         0xffffffff8010e29a        0x6 
 .rodata._ZTVN4AHCI20AHCIControllerDeviceE
                0xffffffff8010e2a0       0x20 ./build/Drivers/Storage/AHCI/AHCIControllerDeviceImpl.o
                0xffffffff8010e2a0                vtable for AHCI::AHCIControllerDevice
 .rodata        0xffffffff8010e2c0       0x4a ./build/Drivers/Storage/AHCI/AHCIMain.o
 *fill*         0xffffffff8010e30a        0x6 
 .rodata        0xffffffff8010e310       0x22 ./build/Drivers/Storage/AHCI/SATADiskDeviceImpl.o
 *fill*         0xffffffff8010e332        0x6 
 .rodata._ZTVN4AHCI14SATADiskDeviceE
                0xffffffff8010e338       0x30 ./build/Drivers/Storage/AHCI/SATADiskDeviceImpl.o
                0xffffffff8010e338                vtable for AHCI::SATADiskDevice
 .rodata        0xffffffff8010e368       0x27 ./build/Drivers/Bus/PCI/PCIDeviceProviderImpl.o
 *fill*         0xffffffff8010e38f        0x1 
 .rodata._ZTVN3PCI17PCIDeviceProviderE
                0xffffffff8010e390       0x18 ./build/Drivers/Bus/PCI/PCIDeviceProviderImpl.o
                0xffffffff8010e390                vtable for PCI::PCIDeviceProvider
 .rodata._ZTV14DeviceProvider
                0xffffffff8010e3a8       0x18 ./build/Drivers/Bus/PCI/PCIDeviceProviderImpl.o
                0xffffffff8010e3a8                vtable for DeviceProvider
 .rodata._ZTVN3PCI9PCIDeviceE
                0xffffffff8010e3c0       0x20 ./build/Drivers/Bus/PCI/PCIDeviceImpl.o
                0xffffffff8010e3c0                vtable for PCI::PCIDevice
 .rodata        0xffffffff8010e3e0       0x5c ./build/Drivers/Generic/APIC/IO.o
 .rodata        0xffffffff8010e43c        0x6 ./build/Drivers/Generic/APIC/APICTimer.o
 *fill*         0xffffffff8010e442        0x6 
 .rodata._ZTV14LocalAPICTimer
                0xffffffff8010e448       0x28 ./build/Drivers/Generic/APIC/APICTimer.o
                0xffffffff8010e448                vtable for LocalAPICTimer
 .rodata._ZTV5Timer
                0xffffffff8010e470       0x28 ./build/Drivers/Generic/APIC/APICTimer.o
                0xffffffff8010e470                vtable for Timer
 .rodata        0xffffffff8010e498       0x2a ./build/Drivers/Generic/APIC/Local.o
 *fill*         0xffffffff8010e4c2        0x6 
 .rodata        0xffffffff8010e4c8      0x158 ./build/Drivers/Generic/APIC/APICMain.o
 .rodata        0xffffffff8010e620       0x70 ./build/Drivers/Generic/ACPI/ACPIMain.o
 .rodata        0xffffffff8010e690       0x38 ./build/Drivers/Generic/ACPI/ACPITimerImpl.o
 .rodata._ZTV9ACPITimer
                0xffffffff8010e6c8       0x28 ./build/Drivers/Generic/ACPI/ACPITimerImpl.o
                0xffffffff8010e6c8                vtable for ACPITimer
 .rodata        0xffffffff8010e6f0       0x53 ./build/Drivers/Clock/HPET/HPETTimerImpl.o
 *fill*         0xffffffff8010e743        0x5 
 .rodata._ZTV9HPETTimer
                0xffffffff8010e748       0x28 ./build/Drivers/Clock/HPET/HPETTimerImpl.o
                0xffffffff8010e748                vtable for HPETTimer
 .rodata        0xffffffff8010e770       0x7f ./build/Drivers/Input/PS2LegacyController.o
 *fill*         0xffffffff8010e7ef        0x1 
 .rodata._ZTVN5Input19PS2LegacyControllerE
                0xffffffff8010e7f0       0x20 ./build/Drivers/Input/PS2LegacyController.o
                0xffffffff8010e7f0                vtable for Input::PS2LegacyController
 .rodata        0xffffffff8010e810       0x22 ./build/Drivers/Input/PS2LegacyKeyboardImpl.o
 *fill*         0xffffffff8010e832        0x6 
 .rodata._ZTVN5Input17PS2LegacyKeyboardE
                0xffffffff8010e838       0x20 ./build/Drivers/Input/PS2LegacyKeyboardImpl.o
                0xffffffff8010e838                vtable for Input::PS2LegacyKeyboard
 .rodata        0xffffffff8010e858       0x2f ./build/Memory/Memory.o
 .rodata        0xffffffff8010e887       0x17 ./build/Memory/Page.o
 *fill*         0xffffffff8010e89e        0x2 
 .rodata        0xffffffff8010e8a0       0x21 ./build/Memory/SlabAllocatorImpl.o
 .rodata        0xffffffff8010e8c1        0x7 ./build/Process/ActivityManagement.o
 .rodata        0xffffffff8010e8c8       0x1d ./build/Process/SchedulerImpl.o
 .rodata        0xffffffff8010e8e5        0x9 ./build/Process/Scheduler.o
 *fill*         0xffffffff8010e8ee        0x2 
 .rodata        0xffffffff8010e8f0       0x72 ./build/Arch/x86_64/SMP.o
 *fill*         0xffffffff8010e962        0x6 
 .rodata        0xffffffff8010e968       0xde ./build/Arch/x86_64/BootX64.o
 *fill*         0xffffffff8010ea46        0x2 
 .rodata        0xffffffff8010ea48       0x5d ./build/Arch/x86_64/MMU.o
 .rodata        0xffffffff8010eaa5        0x9 ./build/Arch/x86_64/AddressSpace.o
 *fill*         0xffffffff8010eaae        0x2 
 .rodata._ZTV18KernelAddressSpace
                0xffffffff8010eab0       0x30 ./build/Arch/x86_64/AddressSpace.o
                0xffffffff8010eab0                vtable for KernelAddressSpace
 .rodata._ZTV12AddressSpace
                0xffffffff8010eae0       0x30 ./build/Arch/x86_64/AddressSpace.o
                0xffffffff8010eae0                vtable for AddressSpace
 .rodata        0xffffffff8010eb10      0x269 ./build/Arch/x86_64/Interrupts.o
 *fill*         0xffffffff8010ed79        0x7 
 .rodata        0xffffffff8010ed80       0x44 ./build/Arch/x86_64/SMBIOS.o
 *fill*         0xffffffff8010edc4        0x4 
 .rodata        0xffffffff8010edc8      0x130 ./build/Input/KeyCode.o
 .rodata        0xffffffff8010eef8      0x1b8 ./build/Input/ConsoleImpl.o
 .rodata._ZTV10DiskDevice
                0xffffffff8010f0b0       0x30 ./build/Fs/DiskDeviceImpl.o
                0xffffffff8010f0b0                vtable for DiskDevice

.eh_frame       0xffffffff8010f0e0     0x35f8 load address 0x000000000010f0e0
 .eh_frame      0xffffffff8010f0e0       0x58 ./build/Video/VideoControllerImpl.o
 .eh_frame      0xffffffff8010f138      0x108 ./build/Video/TextModePresenterImpl.o
                                        0x120 (size before relaxing)
 .eh_frame      0xffffffff8010f240       0xa0 ./build/Video/VideoPresenterImpl.o
                                         0xb8 (size before relaxing)
 .eh_frame      0xffffffff8010f2e0       0x98 ./build/System.o
                                         0xb0 (size before relaxing)
 .eh_frame      0xffffffff8010f378       0xe0 ./build/Runtime.o
                                         0xf8 (size before relaxing)
 .eh_frame      0xffffffff8010f458       0x60 ./build/libkern/printf.o
                                         0x78 (size before relaxing)
 .eh_frame      0xffffffff8010f4b8       0x40 ./build/libkern/sprintf.o
                                         0x58 (size before relaxing)
 .eh_frame      0xffffffff8010f4f8       0x40 ./build/Device/DeviceImpl.o
                                         0x58 (size before relaxing)
 .eh_frame      0xffffffff8010f538      0x228 ./build/Device/DeviceStaticImpl.o
                                        0x280 (size before relaxing)
 .eh_frame      0xffffffff8010f760       0x40 ./build/Device/DeviceManagement.o
                                        0x128 (size before relaxing)
 .eh_frame      0xffffffff8010f7a0      0x1e8 ./build/Drivers/Storage/AHCI/AHCIControllerDeviceImpl.o
                                        0x240 (size before relaxing)
 .eh_frame      0xffffffff8010f988       0x88 ./build/Drivers/Storage/AHCI/AHCIMain.o
                                         0xc0 (size before relaxing)
 .eh_frame      0xffffffff8010fa10      0x1e0 ./build/Drivers/Storage/AHCI/SATADiskDeviceImpl.o
                                        0x238 (size before relaxing)
 .eh_frame      0xffffffff8010fbf0      0x360 ./build/Drivers/Bus/PCI/PCIDeviceProviderImpl.o
                                        0x3b8 (size before relaxing)
 .eh_frame      0xffffffff8010ff50      0x1e0 ./build/Drivers/Bus/PCI/PCIMain.o
                                        0x1f8 (size before relaxing)
 .eh_frame      0xffffffff80110130       0xa0 ./build/Drivers/Bus/PCI/PCIDeviceImpl.o
                                        0x138 (size before relaxing)
 .eh_frame      0xffffffff801101d0       0xe0 ./build/Drivers/Video.o
                                         0xf8 (size before relaxing)
 .eh_frame      0xffffffff801102b0      0x1a8 ./build/Drivers/Generic/APIC/IO.o
                                        0x1c0 (size before relaxing)
 .eh_frame      0xffffffff80110458      0x108 ./build/Drivers/Generic/APIC/APICTimer.o
                                        0x120 (size before relaxing)
 .eh_frame      0xffffffff80110560      0x140 ./build/Drivers/Generic/APIC/Local.o
                                        0x158 (size before relaxing)
 .eh_frame      0xffffffff801106a0       0x60 ./build/Drivers/Generic/APIC/APICMain.o
                                         0x78 (size before relaxing)
 .eh_frame      0xffffffff80110700      0x188 ./build/Drivers/Generic/ACPI/ACPIMain.o
                                        0x200 (size before relaxing)
 .eh_frame      0xffffffff80110888       0xc0 ./build/Drivers/Generic/ACPI/ACPITimerImpl.o
                                         0xf8 (size before relaxing)
 .eh_frame      0xffffffff80110948       0xa0 ./build/Drivers/Clock/HPET/HPETTimerImpl.o
                                         0xd8 (size before relaxing)
 .eh_frame      0xffffffff801109e8      0x108 ./build/Drivers/Input/PS2LegacyController.o
                                        0x1a0 (size before relaxing)
 .eh_frame      0xffffffff80110af0       0xc0 ./build/Drivers/Input/PS2LegacyKeyboardImpl.o
                                        0x138 (size before relaxing)
 .eh_frame      0xffffffff80110bb0      0x270 ./build/String.o
                                        0x288 (size before relaxing)
 .eh_frame      0xffffffff80110e20      0x1c0 ./build/Memory/Memory.o
                                        0x1d8 (size before relaxing)
 .eh_frame      0xffffffff80110fe0      0x3d0 ./build/Memory/Page.o
                                        0x448 (size before relaxing)
 .eh_frame      0xffffffff801113b0       0xe0 ./build/Memory/SlabAllocatorImpl.o
                                         0xf8 (size before relaxing)
 .eh_frame      0xffffffff80111490      0x148 ./build/Process/ProcessImpl.o
                                        0x1a0 (size before relaxing)
 .eh_frame      0xffffffff801115d8       0x80 ./build/Process/ActivityManagement.o
                                         0xb8 (size before relaxing)
 .eh_frame      0xffffffff80111658      0x208 ./build/Process/SchedulerImpl.o
                                        0x220 (size before relaxing)
 .eh_frame      0xffffffff80111860       0x80 ./build/Process/Scheduler.o
                                         0x98 (size before relaxing)
 .eh_frame      0xffffffff801118e0      0x148 ./build/Process/ActivityImpl.o
                                        0x1a0 (size before relaxing)
 .eh_frame      0xffffffff80111a28       0xc0 ./build/Arch/x86_64/SMP.o
                                         0xd8 (size before relaxing)
 .eh_frame      0xffffffff80111ae8       0xc0 ./build/Arch/x86_64/BootX64.o
                                         0xd8 (size before relaxing)
 .eh_frame      0xffffffff80111ba8       0x60 ./build/Arch/x86_64/PIT.o
                                         0x78 (size before relaxing)
 .eh_frame      0xffffffff80111c08       0xa0 ./build/Arch/x86_64/PIC.o
                                         0xb8 (size before relaxing)
 .eh_frame      0xffffffff80111ca8       0x40 ./build/Arch/x86_64/IDT.o
                                         0x58 (size before relaxing)
 .eh_frame      0xffffffff80111ce8       0x40 ./build/Arch/x86_64/TaskStateSegment.o
                                         0x58 (size before relaxing)
 .eh_frame      0xffffffff80111d28      0x108 ./build/Arch/x86_64/CPU.o
                                        0x140 (size before relaxing)
 .eh_frame      0xffffffff80111e30       0x80 ./build/Arch/x86_64/GDT.o
                                         0xb8 (size before relaxing)
 .eh_frame      0xffffffff80111eb0       0xa0 ./build/Arch/x86_64/Arch.o
                                         0xb8 (size before relaxing)
 .eh_frame      0xffffffff80111f50       0x40 ./build/Arch/x86_64/SchedulerArchImpl.o
                                         0x58 (size before relaxing)
 .eh_frame      0xffffffff80111f90      0x360 ./build/Arch/x86_64/MMU.o
                                        0x378 (size before relaxing)
 .eh_frame      0xffffffff801122f0      0x1a0 ./build/Arch/x86_64/AddressSpace.o
                                        0x1d8 (size before relaxing)
 .eh_frame      0xffffffff80112490       0x60 ./build/Arch/x86_64/Interrupts.o
                                         0x98 (size before relaxing)
 .eh_frame      0xffffffff801124f0       0x40 ./build/Arch/x86_64/SMBIOS.o
                                         0x58 (size before relaxing)
 .eh_frame      0xffffffff80112530       0x20 ./build/Input/KeyCode.o
                                         0x38 (size before relaxing)
 .eh_frame      0xffffffff80112550      0x148 ./build/Input/ConsoleImpl.o
                                        0x160 (size before relaxing)
 .eh_frame      0xffffffff80112698       0x40 ./build/Fs/DiskDeviceImpl.o
                                         0x58 (size before relaxing)

.rela.dyn       0xffffffff801126d8        0x0 load address 0x00000000001126d8
 .rela.got      0xffffffff801126d8        0x0 ./build/Video/VideoControllerImpl.o
 .rela.iplt     0xffffffff801126d8        0x0 ./build/Video/VideoControllerImpl.o
 .rela.text     0xffffffff801126d8        0x0 ./build/Video/VideoControllerImpl.o
 .rela.text._ZN6DeviceD2Ev
                0xffffffff801126d8        0x0 ./build/Video/VideoControllerImpl.o
 .rela.text._ZN10DiskDeviceC2EPKc9DeviceBus
                0xffffffff801126d8        0x0 ./build/Video/VideoControllerImpl.o
 .rela.text._ZN10DiskDeviceD2Ev
                0xffffffff801126d8        0x0 ./build/Video/VideoControllerImpl.o
 .rela.text._ZN14DeviceProviderC2Ev
                0xffffffff801126d8        0x0 ./build/Video/VideoControllerImpl.o
 .rela.text._ZN5TimerC2Ev
                0xffffffff801126d8        0x0 ./build/Video/VideoControllerImpl.o
 .rela.text._ZN12AddressSpaceC2Ev
                0xffffffff801126d8        0x0 ./build/Video/VideoControllerImpl.o
 .rela.text._ZN18KernelAddressSpaceC2Ev
                0xffffffff801126d8        0x0 ./build/Video/VideoControllerImpl.o

.data           0xffffffff80113000     0x1d61 load address 0x0000000000113000
 *(.data*)
 .data          0xffffffff80113000        0x0 ./build/Video/VideoControllerImpl.o
 .data          0xffffffff80113000        0x0 ./build/Video/TextModePresenterImpl.o
 .data          0xffffffff80113000        0x0 ./build/Video/VideoPresenterImpl.o
 .data          0xffffffff80113000        0x0 ./build/Video/FrameBufferPresenterImpl.o
 .data          0xffffffff80113000        0x0 ./build/System.o
 .data          0xffffffff80113000        0x0 ./build/Runtime.o
 .data          0xffffffff80113000        0x0 ./build/libkern/printf.o
 .data          0xffffffff80113000        0x0 ./build/libkern/sprintf.o
 .data          0xffffffff80113000        0x0 ./build/Device/ComputerDeviceImpl.o
 .data          0xffffffff80113000        0x0 ./build/Device/DeviceImpl.o
 .data          0xffffffff80113000        0x0 ./build/Device/DeviceStaticImpl.o
 .data          0xffffffff80113000        0x0 ./build/Device/DeviceManagement.o
 .data          0xffffffff80113000        0x0 ./build/Drivers/Storage/AHCI/AHCIControllerDeviceImpl.o
 .data          0xffffffff80113000        0x0 ./build/Drivers/Storage/AHCI/AHCIMain.o
 .data          0xffffffff80113000        0x0 ./build/Drivers/Storage/AHCI/SATADiskDeviceImpl.o
 .data          0xffffffff80113000        0x0 ./build/Drivers/Bus/PCI/PCIDeviceProviderImpl.o
 .data          0xffffffff80113000        0x0 ./build/Drivers/Bus/PCI/PCIMain.o
 .data          0xffffffff80113000        0x0 ./build/Drivers/Bus/PCI/PCIDeviceImpl.o
 .data          0xffffffff80113000        0x0 ./build/Drivers/Video.o
 .data          0xffffffff80113000        0x0 ./build/Drivers/Generic/APIC/IO.o
 .data          0xffffffff80113000        0x0 ./build/Drivers/Generic/APIC/APICTimer.o
 .data          0xffffffff80113000        0x0 ./build/Drivers/Generic/APIC/Local.o
 .data          0xffffffff80113000        0x0 ./build/Drivers/Generic/APIC/APICMain.o
 .data          0xffffffff80113000        0x0 ./build/Drivers/Generic/ACPI/MADTMain.o
 .data          0xffffffff80113000        0x0 ./build/Drivers/Generic/ACPI/ACPIMain.o
 .data          0xffffffff80113000        0x0 ./build/Drivers/Generic/ACPI/ACPITimerImpl.o
 .data          0xffffffff80113000        0x0 ./build/Drivers/Clock/HPET/HPETTimerImpl.o
 .data          0xffffffff80113000        0x0 ./build/Drivers/Input/PS2LegacyController.o
 .data          0xffffffff80113000        0x0 ./build/Drivers/Input/PS2LegacyKeyboardImpl.o
 .data          0xffffffff80113000        0x0 ./build/String.o
 .data          0xffffffff80113000        0x0 ./build/Memory/Memory.o
 .data          0xffffffff80113000        0x0 ./build/Memory/Page.o
 .data          0xffffffff80113000       0x20 ./build/Memory/SlabAllocatorImpl.o
                0xffffffff80113000                Memory::m_BlockSize
 .data          0xffffffff80113020        0x0 ./build/Process/ProcessImpl.o
 .data          0xffffffff80113020        0x0 ./build/Process/ActivityManagement.o
 .data          0xffffffff80113020        0x0 ./build/Process/SchedulerImpl.o
 .data          0xffffffff80113020        0x0 ./build/Process/Scheduler.o
 .data          0xffffffff80113020        0x0 ./build/Process/ActivityImpl.o
 .data          0xffffffff80113020       0x30 ./build/Arch/x86_64/SMP.o
                0xffffffff80113020                SMP::smpMagicValue
                0xffffffff80113028                SMP::smpTrampolineCpuID
                0xffffffff80113030                SMP::smpGdtPointer
                0xffffffff80113038                SMP::smpRegisterCR3
                0xffffffff80113040                SMP::smpStack
                0xffffffff80113048                SMP::smpEntry2
 .data          0xffffffff80113050        0x0 ./build/Arch/x86_64/BootX64.o
 .data          0xffffffff80113050        0x0 ./build/Arch/x86_64/PIT.o
 .data          0xffffffff80113050        0x0 ./build/Arch/x86_64/PIC.o
 .data          0xffffffff80113050        0xa ./build/Arch/x86_64/IDT.o
                0xffffffff80113050                g_IDTPointer
 .data          0xffffffff8011305a        0x0 ./build/Arch/x86_64/TaskStateSegment.o
 .data          0xffffffff8011305a        0x0 ./build/Arch/x86_64/CPU.o
 *fill*         0xffffffff8011305a        0x6 
 .data          0xffffffff80113060       0x4a ./build/Arch/x86_64/GDT.o
                0xffffffff80113060                gdt
                0xffffffff801130a0                g_GDTPointer
 .data          0xffffffff801130aa        0x0 ./build/Arch/x86_64/Arch.o
 .data          0xffffffff801130aa        0x0 ./build/Arch/x86_64/SchedulerArchImpl.o
 .data          0xffffffff801130aa        0x0 ./build/Arch/x86_64/MMU.o
 .data          0xffffffff801130aa        0x0 ./build/Arch/x86_64/AddressSpace.o
 *fill*         0xffffffff801130aa       0x16 
 .data          0xffffffff801130c0     0x1800 ./build/Arch/x86_64/Interrupts.o
                0xffffffff801130c0                g_IntData
 .data          0xffffffff801148c0       0x14 ./build/Arch/x86_64/SMBIOS.o
                0xffffffff801148c0                SMBIOS::__smbios_SignatureL2
                0xffffffff801148c8                SMBIOS::__smbios_SignatureL3
                0xffffffff801148d0                SMBIOS::g_SmbiosVersion
 *fill*         0xffffffff801148d4        0xc 
 .data          0xffffffff801148e0      0x400 ./build/Input/KeyCode.o
                0xffffffff801148e0                Input::c_KeyScanCode1
 .data          0xffffffff80114ce0       0x10 ./build/Input/ConsoleImpl.o
 .data          0xffffffff80114cf0        0x0 ./build/Fs/DiskDeviceImpl.o
 .data          0xffffffff80114cf0       0x71 ./build/Arch/x86_64/Header.o
                0xffffffff80114d58                __cxa_atexit
                0xffffffff80114d59                __dso_handle

.got            0xffffffff80114d68        0x0 load address 0x0000000000114d68
 .got           0xffffffff80114d68        0x0 ./build/Video/VideoControllerImpl.o

.got.plt        0xffffffff80114d68        0x0 load address 0x0000000000114d68
 .got.plt       0xffffffff80114d68        0x0 ./build/Video/VideoControllerImpl.o

.igot.plt       0xffffffff80114d68        0x0 load address 0x0000000000114d68
 .igot.plt      0xffffffff80114d68        0x0 ./build/Video/VideoControllerImpl.o

.ctors          0xffffffff80114d68       0x48 load address 0x0000000000114d68
 .ctors         0xffffffff80114d68        0x8 ./build/Device/DeviceStaticImpl.o
 .ctors         0xffffffff80114d70        0x8 ./build/Device/DeviceManagement.o
 .ctors         0xffffffff80114d78        0x8 ./build/Drivers/Generic/ACPI/ACPIMain.o
 .ctors         0xffffffff80114d80        0x8 ./build/Memory/Memory.o
 .ctors         0xffffffff80114d88        0x8 ./build/Memory/Page.o
 .ctors         0xffffffff80114d90        0x8 ./build/Process/ActivityManagement.o
 .ctors         0xffffffff80114d98        0x8 ./build/Process/Scheduler.o
 .ctors         0xffffffff80114da0        0x8 ./build/Arch/x86_64/GDT.o
 .ctors         0xffffffff80114da8        0x8 ./build/Arch/x86_64/MMU.o

.bss            0xffffffff80115000   0x41c010 load address 0x0000000000115000
                0xffffffff80115000                __bss = .
 *(COMMON)
 *(.bss*)
 .bss           0xffffffff80115000        0x0 ./build/Video/VideoControllerImpl.o
 .bss           0xffffffff80115000        0x0 ./build/Video/TextModePresenterImpl.o
 .bss           0xffffffff80115000        0x0 ./build/Video/VideoPresenterImpl.o
 .bss           0xffffffff80115000        0x0 ./build/Video/FrameBufferPresenterImpl.o
 .bss           0xffffffff80115000       0x34 ./build/System.o
                0xffffffff80115000                g_Timers
                0xffffffff80115028                g_Console
                0xffffffff80115030                Timer::g_TypePreferrence
 .bss           0xffffffff80115034        0x0 ./build/Runtime.o
 .bss           0xffffffff80115034        0x0 ./build/libkern/printf.o
 .bss           0xffffffff80115034        0x0 ./build/libkern/sprintf.o
 .bss           0xffffffff80115034        0x0 ./build/Device/ComputerDeviceImpl.o
 .bss           0xffffffff80115034        0x0 ./build/Device/DeviceImpl.o
 *fill*         0xffffffff80115034        0xc 
 .bss           0xffffffff80115040      0x250 ./build/Device/DeviceStaticImpl.o
                0xffffffff80115040                Device::allocatedId
                0xffffffff80115060                Device::g_DeviceProviders
                0xffffffff801150a0                Device::g_DeviceLists
 *fill*         0xffffffff80115290       0x10 
 .bss           0xffffffff801152a0      0x230 ./build/Device/DeviceManagement.o
                0xffffffff801152a0                DeviceManagement::g_DeviceProviders
                0xffffffff801152e0                DeviceManagement::g_DeviceLists
 .bss           0xffffffff801154d0        0x0 ./build/Drivers/Storage/AHCI/AHCIControllerDeviceImpl.o
 .bss           0xffffffff801154d0        0x8 ./build/Drivers/Storage/AHCI/AHCIMain.o
                0xffffffff801154d0                AHCI::g_ControllerDevice
 .bss           0xffffffff801154d8        0x0 ./build/Drivers/Storage/AHCI/SATADiskDeviceImpl.o
 .bss           0xffffffff801154d8        0x0 ./build/Drivers/Bus/PCI/PCIDeviceProviderImpl.o
 .bss           0xffffffff801154d8        0x0 ./build/Drivers/Bus/PCI/PCIMain.o
 .bss           0xffffffff801154d8        0x0 ./build/Drivers/Bus/PCI/PCIDeviceImpl.o
 .bss           0xffffffff801154d8        0xc ./build/Drivers/Video.o
                0xffffffff801154d8                Video::buffers
                0xffffffff801154e0                Video::horizontalOffset
                0xffffffff801154e2                Video::verticalOffset
 *fill*         0xffffffff801154e4        0x4 
 .bss           0xffffffff801154e8       0x28 ./build/Drivers/Generic/APIC/IO.o
                0xffffffff801154e8                APIC::IO::BasePhys
                0xffffffff801154f0                APIC::IO::BaseVirtIO
                0xffffffff801154f8                APIC::IO::registerSelect
                0xffffffff80115500                APIC::IO::ioWindow
                0xffffffff80115508                APIC::IO::interrupts
                0xffffffff8011550c                APIC::IO::apicId
 .bss           0xffffffff80115510        0x0 ./build/Drivers/Generic/APIC/APICTimer.o
 .bss           0xffffffff80115510       0x10 ./build/Drivers/Generic/APIC/Local.o
                0xffffffff80115510                APIC::Local::BasePhys
                0xffffffff80115518                APIC::Local::BaseVirtIO
 .bss           0xffffffff80115520        0x0 ./build/Drivers/Generic/APIC/APICMain.o
 .bss           0xffffffff80115520        0x0 ./build/Drivers/Generic/ACPI/MADTMain.o
 .bss           0xffffffff80115520      0x988 ./build/Drivers/Generic/ACPI/ACPIMain.o
                0xffffffff80115520                ACPI::g_Processors
                0xffffffff80115640                ACPI::g_InterruptOverrides
                0xffffffff80115e50                ACPI::rsdp
                0xffffffff80115e58                ACPI::rsdt
                0xffffffff80115e60                ACPI::xsdt
                0xffffffff80115e70                ACPI::xsdtEntryTable
                0xffffffff80115e88                ACPI::g_MADT
                0xffffffff80115e90                ACPI::g_FADT
                0xffffffff80115e98                ACPI::g_HPET
                0xffffffff80115ea0                ACPI::g_MCFG
 .bss           0xffffffff80115ea8        0x0 ./build/Drivers/Generic/ACPI/ACPITimerImpl.o
 .bss           0xffffffff80115ea8        0x0 ./build/Drivers/Clock/HPET/HPETTimerImpl.o
 .bss           0xffffffff80115ea8        0x8 ./build/Drivers/Input/PS2LegacyController.o
                0xffffffff80115ea8                Input::g_PS2Keyboard
 .bss           0xffffffff80115eb0        0x4 ./build/Drivers/Input/PS2LegacyKeyboardImpl.o
 .bss           0xffffffff80115eb4        0x0 ./build/String.o
 *fill*         0xffffffff80115eb4        0xc 
 .bss           0xffffffff80115ec0     0x1478 ./build/Memory/Memory.o
                0xffffffff80115ec0                Memory::g_Statistics
                0xffffffff80115f00                Memory::g_Blocks
                0xffffffff80116320                Memory::g_Sections
                0xffffffff80117330                Memory::g_KernelAllocator
 *fill*         0xffffffff80117338        0x8 
 .bss           0xffffffff80117340      0x348 ./build/Memory/Page.o
                0xffffffff80117340                Memory::zones
 .bss           0xffffffff80117688        0x0 ./build/Memory/SlabAllocatorImpl.o
 .bss           0xffffffff80117688        0x0 ./build/Process/ProcessImpl.o
 *fill*         0xffffffff80117688       0x18 
 .bss           0xffffffff801176a0       0x28 ./build/Process/ActivityManagement.o
                0xffffffff801176a0                Task::g_SystemActivity
 .bss           0xffffffff801176c8        0x0 ./build/Process/SchedulerImpl.o
 *fill*         0xffffffff801176c8       0x18 
 .bss           0xffffffff801176e0       0x88 ./build/Process/Scheduler.o
                0xffffffff801176e0                Task::g_KernelProcess
                0xffffffff80117760                Task::g_Scheduler
 .bss           0xffffffff80117768        0x0 ./build/Process/ActivityImpl.o
 *fill*         0xffffffff80117768       0x18 
 .bss           0xffffffff80117780      0x820 ./build/Arch/x86_64/SMP.o
                0xffffffff80117780                doneInit
                0xffffffff801177a0                cpus
 .bss           0xffffffff80117fa0      0x660 ./build/Arch/x86_64/BootX64.o
                0xffffffff80117fa0                multiboot2_memory_info_t
                0xffffffff80117fc0                bootInfo
 .bss           0xffffffff80118600        0x0 ./build/Arch/x86_64/PIT.o
 .bss           0xffffffff80118600        0x0 ./build/Arch/x86_64/PIC.o
 .bss           0xffffffff80118600     0x1000 ./build/Arch/x86_64/IDT.o
 .bss           0xffffffff80119600        0x0 ./build/Arch/x86_64/TaskStateSegment.o
 .bss           0xffffffff80119600        0x0 ./build/Arch/x86_64/CPU.o
 .bss           0xffffffff80119600       0x70 ./build/Arch/x86_64/GDT.o
                0xffffffff80119600                tss
 .bss           0xffffffff80119670        0x0 ./build/Arch/x86_64/Arch.o
 .bss           0xffffffff80119670        0x0 ./build/Arch/x86_64/SchedulerArchImpl.o
 *fill*         0xffffffff80119670      0x990 
 .bss           0xffffffff8011a000   0x40f000 ./build/Arch/x86_64/MMU.o
                0xffffffff8011a000                Paging::g_KernelPagemap
                0xffffffff80120000                Paging::g_KernelSpace
                0xffffffff80121000                Paging::kernelPages
                0xffffffff80122000                Paging::kernelPdpts
                0xffffffff80123000                Paging::kernelPageDirs
                0xffffffff80124000                Paging::kernelHeapPageDirs
                0xffffffff80125000                Paging::kernelHeapPageTables
                0xffffffff80325000                Paging::ioMappings
                0xffffffff80329000                Paging::kernelPageTablePointers
 .bss           0xffffffff80529000        0x0 ./build/Arch/x86_64/AddressSpace.o
 .bss           0xffffffff80529000        0x0 ./build/Arch/x86_64/Interrupts.o
 .bss           0xffffffff80529000        0x8 ./build/Arch/x86_64/SMBIOS.o
                0xffffffff80529000                SMBIOS::SmbiosInfo
 .bss           0xffffffff80529008        0x0 ./build/Input/KeyCode.o
 .bss           0xffffffff80529008        0x0 ./build/Input/ConsoleImpl.o
 .bss           0xffffffff80529008        0x0 ./build/Fs/DiskDeviceImpl.o
 *fill*         0xffffffff80529008        0x8 
 .bss           0xffffffff80529010     0x8000 ./build/Arch/x86_64/KernelStack.o
                0xffffffff80529010                stack_bottom
                0xffffffff80531010                stack_top
                0xffffffff80531010                __bss_end = .
                0xffffffff80531010                KERNEL_END_ADDR = .

/DISCARD/
 *(.comment)
LOAD ./build/Video/VideoControllerImpl.o
LOAD ./build/Video/TextModePresenterImpl.o
LOAD ./build/Video/VideoPresenterImpl.o
LOAD ./build/Video/FrameBufferPresenterImpl.o
LOAD ./build/System.o
LOAD ./build/Runtime.o
LOAD ./build/libkern/printf.o
LOAD ./build/libkern/sprintf.o
LOAD ./build/Device/ComputerDeviceImpl.o
LOAD ./build/Device/DeviceImpl.o
LOAD ./build/Device/DeviceStaticImpl.o
LOAD ./build/Device/DeviceManagement.o
LOAD ./build/Drivers/Storage/AHCI/AHCIControllerDeviceImpl.o
LOAD ./build/Drivers/Storage/AHCI/AHCIMain.o
LOAD ./build/Drivers/Storage/AHCI/SATADiskDeviceImpl.o
LOAD ./build/Drivers/Bus/PCI/PCIDeviceProviderImpl.o
LOAD ./build/Drivers/Bus/PCI/PCIMain.o
LOAD ./build/Drivers/Bus/PCI/PCIDeviceImpl.o
LOAD ./build/Drivers/Video.o
LOAD ./build/Drivers/Generic/APIC/IO.o
LOAD ./build/Drivers/Generic/APIC/APICTimer.o
LOAD ./build/Drivers/Generic/APIC/Local.o
LOAD ./build/Drivers/Generic/APIC/APICMain.o
LOAD ./build/Drivers/Generic/ACPI/MADTMain.o
LOAD ./build/Drivers/Generic/ACPI/ACPIMain.o
LOAD ./build/Drivers/Generic/ACPI/ACPITimerImpl.o
LOAD ./build/Drivers/Clock/HPET/HPETTimerImpl.o
LOAD ./build/Drivers/Input/PS2LegacyController.o
LOAD ./build/Drivers/Input/PS2LegacyKeyboardImpl.o
LOAD ./build/String.o
LOAD ./build/Memory/Memory.o
LOAD ./build/Memory/Page.o
LOAD ./build/Memory/SlabAllocatorImpl.o
LOAD ./build/Process/ProcessImpl.o
LOAD ./build/Process/ActivityManagement.o
LOAD ./build/Process/SchedulerImpl.o
LOAD ./build/Process/Scheduler.o
LOAD ./build/Process/ActivityImpl.o
LOAD ./build/Arch/x86_64/SMP.o
LOAD ./build/Arch/x86_64/BootX64.o
LOAD ./build/Arch/x86_64/PIT.o
LOAD ./build/Arch/x86_64/PIC.o
LOAD ./build/Arch/x86_64/IDT.o
LOAD ./build/Arch/x86_64/TaskStateSegment.o
LOAD ./build/Arch/x86_64/CPU.o
LOAD ./build/Arch/x86_64/GDT.o
LOAD ./build/Arch/x86_64/Arch.o
LOAD ./build/Arch/x86_64/SchedulerArchImpl.o
LOAD ./build/Arch/x86_64/MMU.o
LOAD ./build/Arch/x86_64/AddressSpace.o
LOAD ./build/Arch/x86_64/Interrupts.o
LOAD ./build/Arch/x86_64/SMBIOS.o
LOAD ./build/Input/KeyCode.o
LOAD ./build/Input/ConsoleImpl.o
LOAD ./build/Fs/DiskDeviceImpl.o
LOAD ./build/Arch/x86_64/SMPTrampoline.o
LOAD ./build/Arch/x86_64/Wrapper.o
LOAD ./build/Arch/x86_64/Header.o
LOAD ./build/Arch/x86_64/KernelStack.o
LOAD ./build/Arch/x86_64/IRQ.o
OUTPUT(./dist/x86_64/atrikrnl.elf elf64-x86-64)
